# SymbolsHelper-Confirmed: 1.1.3+ds1 alpha amd64 arm64 armel armhf hppa hurd-i386 i386 ia64 m68k mips64el mipsel powerpc ppc64 ppc64el riscv64 s390x sh4 sparc64 x32
libopencc.so.1.1 libopencc1.1 #MINVER#
* Build-Depends-Package: libopencc-dev
 _Z11ConvertDictRKNSt7__cxx1112basic_stringIcSt11char_traitsIcESaIcEEESt10shared_ptrIN6opencc4DictEE@Base 1.1.1+git20200624+ds2
 _Z14LoadDictionaryRKNSt7__cxx1112basic_stringIcSt11char_traitsIcESaIcEEES6_@Base 1.1.1+git20200624+ds2
 _Z20opencc_open_internalPKc@Base 1.1.1+git20200624+ds2
 (optional=templinst)_ZN5Darts15DoubleArrayImplIchijNS_6LengthIcEEE6insertERKSt6vectorINS3_6node_tESaIS5_EE@Base 1.1.3+ds1
 (optional=templinst)_ZN5Darts15DoubleArrayImplIchijNS_6LengthIcEEED0Ev@Base 1.1.3+ds1
 (optional=templinst)_ZN5Darts15DoubleArrayImplIchijNS_6LengthIcEEED1Ev@Base 1.1.3+ds1
 (optional=templinst)_ZN5Darts15DoubleArrayImplIchijNS_6LengthIcEEED2Ev@Base 1.1.3+ds1
 _ZN6marisa6KeysetD1Ev@Base 1.1.1+git20200624+ds2
 _ZN6marisa6KeysetD2Ev@Base 1.1.1+git20200624+ds2
 _ZN6opencc10BinaryDict11NewFromFileEP8_IO_FILE@Base 1.1.1+git20200624+ds2
 _ZN6opencc10BinaryDictD0Ev@Base 1.1.1+git20200624+ds2
 _ZN6opencc10BinaryDictD1Ev@Base 1.1.1+git20200624+ds2
 _ZN6opencc10BinaryDictD2Ev@Base 1.1.1+git20200624+ds2
 _ZN6opencc10MarisaDict11NewFromDictERKNS_4DictE@Base 1.1.1+git20200624+ds2
 _ZN6opencc10MarisaDict11NewFromFileEP8_IO_FILE@Base 1.1.1+git20200624+ds2
 _ZN6opencc10MarisaDictC1Ev@Base 1.1.1+git20200624+ds2
 _ZN6opencc10MarisaDictC2Ev@Base 1.1.1+git20200624+ds2
 _ZN6opencc10MarisaDictD0Ev@Base 1.1.1+git20200624+ds2
 _ZN6opencc10MarisaDictD1Ev@Base 1.1.1+git20200624+ds2
 _ZN6opencc10MarisaDictD2Ev@Base 1.1.1+git20200624+ds2
 _ZN6opencc11InvalidUTF8C1ERKNSt7__cxx1112basic_stringIcSt11char_traitsIcESaIcEEE@Base 1.1.1+git20200624+ds2
 _ZN6opencc11InvalidUTF8C2ERKNSt7__cxx1112basic_stringIcSt11char_traitsIcESaIcEEE@Base 1.1.1+git20200624+ds2
 _ZN6opencc11InvalidUTF8D0Ev@Base 1.1.1+git20200624+ds2
 _ZN6opencc11InvalidUTF8D1Ev@Base 1.1.1+git20200624+ds2
 _ZN6opencc11InvalidUTF8D2Ev@Base 1.1.1+git20200624+ds2
 _ZN6opencc12FileNotFoundC1ERKNSt7__cxx1112basic_stringIcSt11char_traitsIcESaIcEEE@Base 1.1.1+git20200624+ds2
 _ZN6opencc12FileNotFoundC2ERKNSt7__cxx1112basic_stringIcSt11char_traitsIcESaIcEEE@Base 1.1.1+git20200624+ds2
 _ZN6opencc12FileNotFoundD0Ev@Base 1.1.1+git20200624+ds2
 _ZN6opencc12FileNotFoundD1Ev@Base 1.1.1+git20200624+ds2
 _ZN6opencc12FileNotFoundD2Ev@Base 1.1.1+git20200624+ds2
 _ZN6opencc13InvalidFormatC1ERKNSt7__cxx1112basic_stringIcSt11char_traitsIcESaIcEEE@Base 1.1.1+git20200624+ds2
 _ZN6opencc13InvalidFormatC2ERKNSt7__cxx1112basic_stringIcSt11char_traitsIcESaIcEEE@Base 1.1.1+git20200624+ds2
 _ZN6opencc13InvalidFormatD0Ev@Base 1.1.1+git20200624+ds2
 _ZN6opencc13InvalidFormatD1Ev@Base 1.1.1+git20200624+ds2
 _ZN6opencc13InvalidFormatD2Ev@Base 1.1.1+git20200624+ds2
 _ZN6opencc13PhraseExtract11SelectWordsEv@Base 1.1.1+git20200624+ds2
 _ZN6opencc13PhraseExtract15ExtractPrefixesEv@Base 1.1.1+git20200624+ds2
 _ZN6opencc13PhraseExtract15ExtractSuffixesEv@Base 1.1.1+git20200624+ds2
 _ZN6opencc13PhraseExtract18CalculateCohesionsEv@Base 1.1.1+git20200624+ds2
 _ZN6opencc13PhraseExtract18CalculateFrequencyEv@Base 1.1.1+git20200624+ds2
 _ZN6opencc13PhraseExtract21ExtractWordCandidatesEv@Base 1.1.1+git20200624+ds2
 _ZN6opencc13PhraseExtract22CalculatePrefixEntropyEv@Base 1.1.1+git20200624+ds2
 _ZN6opencc13PhraseExtract22CalculateSuffixEntropyEv@Base 1.1.1+git20200624+ds2
 _ZN6opencc13PhraseExtract27DefaultPreCalculationFilterERKS0_RKNS_19UTF8StringSliceBaseIhEE@Base 1.1.1+git20200624+ds2
 _ZN6opencc13PhraseExtract28DefaultPostCalculationFilterERKS0_RKNS_19UTF8StringSliceBaseIhEE@Base 1.1.1+git20200624+ds2
 _ZN6opencc13PhraseExtract5ResetEv@Base 1.1.1+git20200624+ds2
 _ZN6opencc13PhraseExtract8DictType9BuildTrieEv@Base 1.1.1+git20200624+ds2
 _ZN6opencc13PhraseExtractC1Ev@Base 1.1.1+git20200624+ds2
 _ZN6opencc13PhraseExtractC2Ev@Base 1.1.1+git20200624+ds2
 _ZN6opencc13PhraseExtractD0Ev@Base 1.1.1+git20200624+ds2
 _ZN6opencc13PhraseExtractD1Ev@Base 1.1.1+git20200624+ds2
 _ZN6opencc13PhraseExtractD2Ev@Base 1.1.1+git20200624+ds2
 _ZN6opencc15ConversionChainC1ENSt7__cxx114listISt10shared_ptrINS_10ConversionEESaIS5_EEE@Base 1.1.1+git20200624+ds2
 _ZN6opencc15ConversionChainC2ENSt7__cxx114listISt10shared_ptrINS_10ConversionEESaIS5_EEE@Base 1.1.1+git20200624+ds2
 _ZN6opencc15FileNotWritableC1ERKNSt7__cxx1112basic_stringIcSt11char_traitsIcESaIcEEE@Base 1.1.1+git20200624+ds2
 _ZN6opencc15FileNotWritableC2ERKNSt7__cxx1112basic_stringIcSt11char_traitsIcESaIcEEE@Base 1.1.1+git20200624+ds2
 _ZN6opencc15FileNotWritableD0Ev@Base 1.1.1+git20200624+ds2
 _ZN6opencc15FileNotWritableD1Ev@Base 1.1.1+git20200624+ds2
 _ZN6opencc15FileNotWritableD2Ev@Base 1.1.1+git20200624+ds2
 _ZN6opencc15ShouldNotBeHereC1Ev@Base 1.1.1+git20200624+ds2
 _ZN6opencc15ShouldNotBeHereC2Ev@Base 1.1.1+git20200624+ds2
 _ZN6opencc15ShouldNotBeHereD0Ev@Base 1.1.1+git20200624+ds2
 _ZN6opencc15ShouldNotBeHereD1Ev@Base 1.1.1+git20200624+ds2
 _ZN6opencc15ShouldNotBeHereD2Ev@Base 1.1.1+git20200624+ds2
 _ZN6opencc15SimpleConverterC1ERKNSt7__cxx1112basic_stringIcSt11char_traitsIcESaIcEEE@Base 1.1.1+git20200624+ds2
 _ZN6opencc15SimpleConverterC2ERKNSt7__cxx1112basic_stringIcSt11char_traitsIcESaIcEEE@Base 1.1.1+git20200624+ds2
 _ZN6opencc15SimpleConverterD1Ev@Base 1.1.1+git20200624+ds2
 _ZN6opencc15SimpleConverterD2Ev@Base 1.1.1+git20200624+ds2
 (arch=!amd64 !arm64 !x32)_ZN6opencc16DictEntryFactory3NewEPKNS_9DictEntryE@Base 1.1.3+ds1
 _ZN6opencc16NoValueDictEntryD0Ev@Base 1.1.1+git20200624+ds2
 _ZN6opencc16NoValueDictEntryD1Ev@Base 1.1.1+git20200624+ds2
 _ZN6opencc16NoValueDictEntryD2Ev@Base 1.1.1+git20200624+ds2
 _ZN6opencc16SerializedValues11NewFromFileEP8_IO_FILE@Base 1.1.1+git20200624+ds2
 _ZN6opencc16SerializedValuesD0Ev@Base 1.1.1+git20200624+ds2
 _ZN6opencc16SerializedValuesD1Ev@Base 1.1.1+git20200624+ds2
 _ZN6opencc16SerializedValuesD2Ev@Base 1.1.1+git20200624+ds2
 _ZN6opencc17ConvertDictionaryENSt7__cxx1112basic_stringIcSt11char_traitsIcESaIcEEES5_S5_S5_@Base 1.1.1+git20200624+ds2
 _ZN6opencc20MaxMatchSegmentationD0Ev@Base 1.1.1+git20200624+ds2
 _ZN6opencc20MaxMatchSegmentationD1Ev@Base 1.1.1+git20200624+ds2
 _ZN6opencc20MaxMatchSegmentationD2Ev@Base 1.1.1+git20200624+ds2
 (subst)_ZN6opencc21InvalidTextDictionaryC1ERKNSt7__cxx1112basic_stringIcSt11char_traitsIcESaIcEEE{size_t}@Base 1.1.1+git20200624+ds2
 (subst)_ZN6opencc21InvalidTextDictionaryC2ERKNSt7__cxx1112basic_stringIcSt11char_traitsIcESaIcEEE{size_t}@Base 1.1.1+git20200624+ds2
 _ZN6opencc21InvalidTextDictionaryD0Ev@Base 1.1.1+git20200624+ds2
 _ZN6opencc21InvalidTextDictionaryD1Ev@Base 1.1.1+git20200624+ds2
 _ZN6opencc21InvalidTextDictionaryD2Ev@Base 1.1.1+git20200624+ds2
 _ZN6opencc22StrMultiValueDictEntryD0Ev@Base 1.1.1+git20200624+ds2
 _ZN6opencc22StrMultiValueDictEntryD1Ev@Base 1.1.1+git20200624+ds2
 _ZN6opencc22StrMultiValueDictEntryD2Ev@Base 1.1.1+git20200624+ds2
 _ZN6opencc23StrSingleValueDictEntryD0Ev@Base 1.1.1+git20200624+ds2
 _ZN6opencc23StrSingleValueDictEntryD1Ev@Base 1.1.1+git20200624+ds2
 _ZN6opencc23StrSingleValueDictEntryD2Ev@Base 1.1.1+git20200624+ds2
 (subst)_ZN6opencc28CalculatePrefixSuffixEntropyILb0EEEvRKSt6vectorINS_19UTF8StringSliceBaseIhEESaIS3_EE{size_t}{size_t}{size_t}RKSt8functionIFvRKS3_RSt13unordered_mapIS3_{size_t}NS3_6HasherESt8equal_toIS3_ESaISt4pairIS9_{size_t}EEEEE@Base 1.1.1+git20200624+ds2
 (subst)_ZN6opencc28CalculatePrefixSuffixEntropyILb1EEEvRKSt6vectorINS_19UTF8StringSliceBaseIhEESaIS3_EE{size_t}{size_t}{size_t}RKSt8functionIFvRKS3_RSt13unordered_mapIS3_{size_t}NS3_6HasherESt8equal_toIS3_ESaISt4pairIS9_{size_t}EEEEE@Base 1.1.1+git20200624+ds2
 _ZN6opencc6Config11NewFromFileERKNSt7__cxx1112basic_stringIcSt11char_traitsIcESaIcEEE@Base 1.1.1+git20200624+ds2
 _ZN6opencc6Config13NewFromStringERKNSt7__cxx1112basic_stringIcSt11char_traitsIcESaIcEEES8_@Base 1.1.1+git20200624+ds2
 _ZN6opencc6ConfigC1Ev@Base 1.1.1+git20200624+ds2
 _ZN6opencc6ConfigC2Ev@Base 1.1.1+git20200624+ds2
 _ZN6opencc6ConfigD0Ev@Base 1.1.1+git20200624+ds2
 _ZN6opencc6ConfigD1Ev@Base 1.1.1+git20200624+ds2
 _ZN6opencc6ConfigD2Ev@Base 1.1.1+git20200624+ds2
 _ZN6opencc7Lexicon4SortEv@Base 1.1.1+git20200624+ds2
 _ZN6opencc7Lexicon8IsSortedEv@Base 1.1.1+git20200624+ds2
 _ZN6opencc7Lexicon8IsUniqueEv@Base 1.1.3+ds1
 _ZN6opencc8SegmentsD1Ev@Base 1.1.3+ds1
 _ZN6opencc8SegmentsD2Ev@Base 1.1.3+ds1
 _ZN6opencc8TextDict11NewFromDictERKNS_4DictE@Base 1.1.1+git20200624+ds2
 _ZN6opencc8TextDict11NewFromFileEP8_IO_FILE@Base 1.1.1+git20200624+ds2
 _ZN6opencc8TextDict17NewFromSortedFileEP8_IO_FILE@Base 1.1.1+git20200624+ds2
 _ZN6opencc8TextDictC1ERKSt10shared_ptrINS_7LexiconEE@Base 1.1.1+git20200624+ds2
 _ZN6opencc8TextDictC2ERKSt10shared_ptrINS_7LexiconEE@Base 1.1.1+git20200624+ds2
 _ZN6opencc8TextDictD0Ev@Base 1.1.1+git20200624+ds2
 _ZN6opencc8TextDictD1Ev@Base 1.1.1+git20200624+ds2
 _ZN6opencc8TextDictD2Ev@Base 1.1.1+git20200624+ds2
 _ZN6opencc8UTF8Util11SkipUtf8BomEP8_IO_FILE@Base 1.1.1+git20200624+ds2
 _ZN6opencc8internal19ContainsPunctuationERKNS_19UTF8StringSliceBaseIhEE@Base 1.1.1+git20200624+ds2
 _ZN6opencc9ConverterD1Ev@Base 1.1.1+git20200624+ds2
 _ZN6opencc9ConverterD2Ev@Base 1.1.1+git20200624+ds2
 _ZN6opencc9DartsDict11NewFromDictERKNS_4DictE@Base 1.1.1+git20200624+ds2
 _ZN6opencc9DartsDict11NewFromFileEP8_IO_FILE@Base 1.1.1+git20200624+ds2
 _ZN6opencc9DartsDictC1Ev@Base 1.1.1+git20200624+ds2
 _ZN6opencc9DartsDictC2Ev@Base 1.1.1+git20200624+ds2
 _ZN6opencc9DartsDictD0Ev@Base 1.1.1+git20200624+ds2
 _ZN6opencc9DartsDictD1Ev@Base 1.1.1+git20200624+ds2
 _ZN6opencc9DartsDictD2Ev@Base 1.1.1+git20200624+ds2
 _ZN6opencc9DictEntry12UPtrLessThanERKSt10unique_ptrIS0_St14default_deleteIS0_EES6_@Base 1.1.1+git20200624+ds2
 _ZN6opencc9DictGroup11NewFromDictERKNS_4DictE@Base 1.1.1+git20200624+ds2
 _ZN6opencc9DictGroupC1ERKNSt7__cxx114listISt10shared_ptrINS_4DictEESaIS5_EEE@Base 1.1.1+git20200624+ds2
 _ZN6opencc9DictGroupC2ERKNSt7__cxx114listISt10shared_ptrINS_4DictEESaIS5_EEE@Base 1.1.1+git20200624+ds2
 _ZN6opencc9DictGroupD0Ev@Base 1.1.1+git20200624+ds2
 _ZN6opencc9DictGroupD1Ev@Base 1.1.1+git20200624+ds2
 _ZN6opencc9DictGroupD2Ev@Base 1.1.1+git20200624+ds2
 _ZN6opencc9ExceptionD0Ev@Base 1.1.1+git20200624+ds2
 _ZN6opencc9ExceptionD1Ev@Base 1.1.1+git20200624+ds2
 _ZN6opencc9ExceptionD2Ev@Base 1.1.1+git20200624+ds2
 (optional=templinst)_ZN9rapidjson13GenericReaderINS_4UTF8IcEES2_NS_12CrtAllocatorEE10ParseValueILj1ENS_25GenericInsituStringStreamIS2_EENS_15GenericDocumentIS2_NS_19MemoryPoolAllocatorIS3_EES3_EEEEvRT0_RT1_@Base 1.1.3+ds1
 (optional=templinst)_ZN9rapidjson13GenericReaderINS_4UTF8IcEES2_NS_12CrtAllocatorEE11ParseNumberILj1ENS_25GenericInsituStringStreamIS2_EENS_15GenericDocumentIS2_NS_19MemoryPoolAllocatorIS3_EES3_EEEEvRT0_RT1_@Base 1.1.3+ds1
 (optional=templinst)_ZN9rapidjson13GenericReaderINS_4UTF8IcEES2_NS_12CrtAllocatorEE11ParseStringILj1ENS_25GenericInsituStringStreamIS2_EENS_15GenericDocumentIS2_NS_19MemoryPoolAllocatorIS3_EES3_EEEEvRT0_RT1_b@Base 1.1.3+ds1
 (optional=templinst)_ZN9rapidjson8internal5StackINS_12CrtAllocatorEE7DestroyEv@Base 1.1.3+ds1
 _ZNK6opencc10BinaryDict12KeyMaxLengthEv@Base 1.1.1+git20200624+ds2
 (subst)_ZNK6opencc10BinaryDict15ConstructBufferERNSt7__cxx1112basic_stringIcSt11char_traitsIcESaIcEEERSt6vectorI{size_t}SaI{size_t}EER{size_t}S7_SB_SC_@Base 1.1.1+git20200624+ds2
 _ZNK6opencc10BinaryDict15SerializeToFileEP8_IO_FILE@Base 1.1.1+git20200624+ds2
 _ZNK6opencc10Conversion7ConvertB5cxx11EPKc@Base 1.1.1+git20200624+ds2
 _ZNK6opencc10Conversion7ConvertERKNSt7__cxx1112basic_stringIcSt11char_traitsIcESaIcEEE@Base 1.1.1+git20200624+ds2
 _ZNK6opencc10Conversion7ConvertERKSt10shared_ptrINS_8SegmentsEE@Base 1.1.1+git20200624+ds2
 _ZNK6opencc10MarisaDict10GetLexiconEv@Base 1.1.1+git20200624+ds2
 (subst)_ZNK6opencc10MarisaDict11MatchPrefixEPKc{size_t}@Base 1.1.1+git20200624+ds2
 _ZNK6opencc10MarisaDict12KeyMaxLengthEv@Base 1.1.1+git20200624+ds2
 _ZNK6opencc10MarisaDict15SerializeToFileEP8_IO_FILE@Base 1.1.1+git20200624+ds2
 (subst)_ZNK6opencc10MarisaDict16MatchAllPrefixesEPKc{size_t}@Base 1.1.1+git20200624+ds2
 (subst)_ZNK6opencc10MarisaDict5MatchEPKc{size_t}@Base 1.1.1+git20200624+ds2
 _ZNK6opencc13PhraseExtract11ProbabilityERKNS_19UTF8StringSliceBaseIhEE@Base 1.1.1+git20200624+ds2
 _ZNK6opencc13PhraseExtract13PrefixEntropyERKNS_19UTF8StringSliceBaseIhEE@Base 1.1.1+git20200624+ds2
 _ZNK6opencc13PhraseExtract13SuffixEntropyERKNS_19UTF8StringSliceBaseIhEE@Base 1.1.1+git20200624+ds2
 _ZNK6opencc13PhraseExtract14LogProbabilityERKNS_19UTF8StringSliceBaseIhEE@Base 1.1.1+git20200624+ds2
 (subst)_ZNK6opencc13PhraseExtract16CalculateEntropyERKSt13unordered_mapINS_19UTF8StringSliceBaseIhEE{size_t}NS3_6HasherESt8equal_toIS3_ESaISt4pairIKS3_{size_t}EEE@Base 1.1.1+git20200624+ds2
 _ZNK6opencc13PhraseExtract17CalculateCohesionERKNS_19UTF8StringSliceBaseIhEE@Base 1.1.1+git20200624+ds2
 _ZNK6opencc13PhraseExtract3PMIERKNS_19UTF8StringSliceBaseIhEES4_S4_@Base 1.1.1+git20200624+ds2
 _ZNK6opencc13PhraseExtract6SignalERKNS_19UTF8StringSliceBaseIhEE@Base 1.1.1+git20200624+ds2
 _ZNK6opencc13PhraseExtract7EntropyERKNS_19UTF8StringSliceBaseIhEE@Base 1.1.1+git20200624+ds2
 _ZNK6opencc13PhraseExtract8CohesionERKNS_19UTF8StringSliceBaseIhEE@Base 1.1.1+git20200624+ds2
 _ZNK6opencc13PhraseExtract9FrequencyERKNS_19UTF8StringSliceBaseIhEE@Base 1.1.1+git20200624+ds2
 _ZNK6opencc15ConversionChain7ConvertERKSt10shared_ptrINS_8SegmentsEE@Base 1.1.1+git20200624+ds2
 _ZNK6opencc15SimpleConverter7ConvertB5cxx11EPKc@Base 1.1.1+git20200624+ds2
 (subst)_ZNK6opencc15SimpleConverter7ConvertB5cxx11EPKc{size_t}@Base 1.1.1+git20200624+ds2
 _ZNK6opencc15SimpleConverter7ConvertEPKcPc@Base 1.1.1+git20200624+ds2
 (subst)_ZNK6opencc15SimpleConverter7ConvertEPKc{size_t}Pc@Base 1.1.1+git20200624+ds2
 _ZNK6opencc15SimpleConverter7ConvertERKNSt7__cxx1112basic_stringIcSt11char_traitsIcESaIcEEE@Base 1.1.1+git20200624+ds2
 _ZNK6opencc16NoValueDictEntry10GetDefaultB5cxx11Ev@Base 1.1.1+git20200624+ds2
 _ZNK6opencc16NoValueDictEntry3KeyB5cxx11Ev@Base 1.1.1+git20200624+ds2
 _ZNK6opencc16NoValueDictEntry6ValuesB5cxx11Ev@Base 1.1.1+git20200624+ds2
 _ZNK6opencc16NoValueDictEntry8ToStringB5cxx11Ev@Base 1.1.1+git20200624+ds2
 _ZNK6opencc16NoValueDictEntry9NumValuesEv@Base 1.1.1+git20200624+ds2
 _ZNK6opencc16SerializableDict15SerializeToFileERKNSt7__cxx1112basic_stringIcSt11char_traitsIcESaIcEEE@Base 1.1.1+git20200624+ds2
 _ZNK6opencc16SerializedValues12KeyMaxLengthEv@Base 1.1.1+git20200624+ds2
 _ZNK6opencc16SerializedValues15ConstructBufferEPNSt7__cxx1112basic_stringIcSt11char_traitsIcESaIcEEEPSt6vectorItSaItEEPj@Base 1.1.1+git20200624+ds2
 _ZNK6opencc16SerializedValues15SerializeToFileEP8_IO_FILE@Base 1.1.1+git20200624+ds2
 _ZNK6opencc19MultiValueDictEntry10GetDefaultB5cxx11Ev@Base 1.1.1+git20200624+ds2
 _ZNK6opencc19MultiValueDictEntry8ToStringB5cxx11Ev@Base 1.1.1+git20200624+ds2
 _ZNK6opencc19UTF8StringSliceBaseIhE14ReverseCompareERKS1_@Base 1.1.1+git20200624+ds2
 _ZNK6opencc20MaxMatchSegmentation7SegmentERKNSt7__cxx1112basic_stringIcSt11char_traitsIcESaIcEEE@Base 1.1.1+git20200624+ds2
 _ZNK6opencc20SingleValueDictEntry10GetDefaultB5cxx11Ev@Base 1.1.1+git20200624+ds2
 _ZNK6opencc20SingleValueDictEntry6ValuesB5cxx11Ev@Base 1.1.1+git20200624+ds2
 _ZNK6opencc20SingleValueDictEntry8ToStringB5cxx11Ev@Base 1.1.1+git20200624+ds2
 _ZNK6opencc20SingleValueDictEntry9NumValuesEv@Base 1.1.1+git20200624+ds2
 _ZNK6opencc22StrMultiValueDictEntry3KeyB5cxx11Ev@Base 1.1.1+git20200624+ds2
 _ZNK6opencc22StrMultiValueDictEntry6ValuesB5cxx11Ev@Base 1.1.1+git20200624+ds2
 _ZNK6opencc22StrMultiValueDictEntry9NumValuesEv@Base 1.1.1+git20200624+ds2
 _ZNK6opencc23StrSingleValueDictEntry3KeyB5cxx11Ev@Base 1.1.1+git20200624+ds2
 _ZNK6opencc23StrSingleValueDictEntry5ValueB5cxx11Ev@Base 1.1.1+git20200624+ds2
 (subst)_ZNK6opencc4Dict11MatchPrefixEPKc{size_t}@Base 1.1.1+git20200624+ds2
 (subst)_ZNK6opencc4Dict16MatchAllPrefixesEPKc{size_t}@Base 1.1.1+git20200624+ds2
 (arch=alpha amd64 arm64 ia64 kfreebsd-amd64 mips64el ppc64 ppc64el riscv64 s390x sparc64)_ZNK6opencc8Segments8ToStringB5cxx11Ev@Base 1.1.1+git20200624+ds2
 _ZNK6opencc8TextDict10GetLexiconEv@Base 1.1.1+git20200624+ds2
 _ZNK6opencc8TextDict12KeyMaxLengthEv@Base 1.1.1+git20200624+ds2
 _ZNK6opencc8TextDict15SerializeToFileEP8_IO_FILE@Base 1.1.1+git20200624+ds2
 (subst)_ZNK6opencc8TextDict5MatchEPKc{size_t}@Base 1.1.1+git20200624+ds2
 _ZNK6opencc9Converter7ConvertEPKcPc@Base 1.1.1+git20200624+ds2
 _ZNK6opencc9Converter7ConvertERKNSt7__cxx1112basic_stringIcSt11char_traitsIcESaIcEEE@Base 1.1.1+git20200624+ds2
 _ZNK6opencc9DartsDict10GetLexiconEv@Base 1.1.1+git20200624+ds2
 (subst)_ZNK6opencc9DartsDict11MatchPrefixEPKc{size_t}@Base 1.1.1+git20200624+ds2
 _ZNK6opencc9DartsDict12KeyMaxLengthEv@Base 1.1.1+git20200624+ds2
 _ZNK6opencc9DartsDict15SerializeToFileEP8_IO_FILE@Base 1.1.1+git20200624+ds2
 (subst)_ZNK6opencc9DartsDict5MatchEPKc{size_t}@Base 1.1.1+git20200624+ds2
 _ZNK6opencc9DictGroup10GetLexiconEv@Base 1.1.1+git20200624+ds2
 (subst)_ZNK6opencc9DictGroup11MatchPrefixEPKc{size_t}@Base 1.1.1+git20200624+ds2
 _ZNK6opencc9DictGroup12KeyMaxLengthEv@Base 1.1.1+git20200624+ds2
 (subst)_ZNK6opencc9DictGroup16MatchAllPrefixesEPKc{size_t}@Base 1.1.1+git20200624+ds2
 (subst)_ZNK6opencc9DictGroup5MatchEPKc{size_t}@Base 1.1.1+git20200624+ds2
 _ZNK6opencc9Exception4whatEv@Base 1.1.1+git20200624+ds2
 (subst)_ZNSt10_HashtableIN6opencc19UTF8StringSliceBaseIhEESt4pairIKS2_{size_t}ESaIS5_ENSt8__detail10_Select1stESt8equal_toIS2_ENS2_6HasherENS7_18_Mod_range_hashingENS7_20_Default_ranged_hashENS7_20_Prime_rehash_policyENS7_17_Hashtable_traitsILb1ELb0ELb1EEEE9_M_rehashE{size_t}RK{size_t}@Base 1.1.1+git20200624+ds2
 (subst)_ZNSt10_HashtableIN6opencc19UTF8StringSliceBaseIhEESt4pairIKS2_{size_t}ESaIS5_ENSt8__detail10_Select1stESt8equal_toIS2_ENS2_6HasherENS7_18_Mod_range_hashingENS7_20_Default_ranged_hashENS7_20_Prime_rehash_policyENS7_17_Hashtable_traitsILb1ELb0ELb1EEEED1Ev@Base 1.1.1+git20200624+ds2
 (subst)_ZNSt10_HashtableIN6opencc19UTF8StringSliceBaseIhEESt4pairIKS2_{size_t}ESaIS5_ENSt8__detail10_Select1stESt8equal_toIS2_ENS2_6HasherENS7_18_Mod_range_hashingENS7_20_Default_ranged_hashENS7_20_Prime_rehash_policyENS7_17_Hashtable_traitsILb1ELb0ELb1EEEED2Ev@Base 1.1.1+git20200624+ds2
 (subst)_ZNSt10_HashtableINSt7__cxx1112basic_stringIcSt11char_traitsIcESaIcEEESt4pairIKS5_St10shared_ptrIN6opencc4DictEEESaISC_ENSt8__detail10_Select1stESt8equal_toIS5_ESt4hashIS5_ENSE_18_Mod_range_hashingENSE_20_Default_ranged_hashENSE_20_Prime_rehash_policyENSE_17_Hashtable_traitsILb1ELb0ELb1EEEE9_M_rehashE{size_t}RK{size_t}@Base 1.1.1+git20200624+ds2
 _ZNSt10_HashtableINSt7__cxx1112basic_stringIcSt11char_traitsIcESaIcEEESt4pairIKS5_St10unique_ptrIN6opencc9DictEntryESt14default_deleteISA_EEESaISE_ENSt8__detail10_Select1stESt8equal_toIS5_ESt4hashIS5_ENSG_18_Mod_range_hashingENSG_20_Default_ranged_hashENSG_20_Prime_rehash_policyENSG_17_Hashtable_traitsILb1ELb0ELb1EEEE12_Scoped_nodeD1Ev@Base 1.1.1+git20200624+ds2
 _ZNSt10_HashtableINSt7__cxx1112basic_stringIcSt11char_traitsIcESaIcEEESt4pairIKS5_St10unique_ptrIN6opencc9DictEntryESt14default_deleteISA_EEESaISE_ENSt8__detail10_Select1stESt8equal_toIS5_ESt4hashIS5_ENSG_18_Mod_range_hashingENSG_20_Default_ranged_hashENSG_20_Prime_rehash_policyENSG_17_Hashtable_traitsILb1ELb0ELb1EEEE12_Scoped_nodeD2Ev@Base 1.1.1+git20200624+ds2
 (optional=templinst|subst)_ZNSt10_HashtableINSt7__cxx1112basic_stringIcSt11char_traitsIcESaIcEEESt4pairIKS5_St10unique_ptrIN6opencc9DictEntryESt14default_deleteISA_EEESaISE_ENSt8__detail10_Select1stESt8equal_toIS5_ESt4hashIS5_ENSG_18_Mod_range_hashingENSG_20_Default_ranged_hashENSG_20_Prime_rehash_policyENSG_17_Hashtable_traitsILb1ELb0ELb1EEEE21_M_insert_unique_nodeE{size_t}{size_t}PNSG_10_Hash_nodeISE_Lb1EEE{size_t}@Base 1.1.3+ds1
 (subst)_ZNSt10_HashtableINSt7__cxx1112basic_stringIcSt11char_traitsIcESaIcEEESt4pairIKS5_St10unique_ptrIN6opencc9DictEntryESt14default_deleteISA_EEESaISE_ENSt8__detail10_Select1stESt8equal_toIS5_ESt4hashIS5_ENSG_18_Mod_range_hashingENSG_20_Default_ranged_hashENSG_20_Prime_rehash_policyENSG_17_Hashtable_traitsILb1ELb0ELb1EEEE9_M_rehashE{size_t}RK{size_t}@Base 1.1.1+git20200624+ds2
 _ZNSt10_HashtableINSt7__cxx1112basic_stringIcSt11char_traitsIcESaIcEEESt4pairIKS5_St10unique_ptrIN6opencc9DictEntryESt14default_deleteISA_EEESaISE_ENSt8__detail10_Select1stESt8equal_toIS5_ESt4hashIS5_ENSG_18_Mod_range_hashingENSG_20_Default_ranged_hashENSG_20_Prime_rehash_policyENSG_17_Hashtable_traitsILb1ELb0ELb1EEEED1Ev@Base 1.1.1+git20200624+ds2
 _ZNSt10_HashtableINSt7__cxx1112basic_stringIcSt11char_traitsIcESaIcEEESt4pairIKS5_St10unique_ptrIN6opencc9DictEntryESt14default_deleteISA_EEESaISE_ENSt8__detail10_Select1stESt8equal_toIS5_ESt4hashIS5_ENSG_18_Mod_range_hashingENSG_20_Default_ranged_hashENSG_20_Prime_rehash_policyENSG_17_Hashtable_traitsILb1ELb0ELb1EEEED2Ev@Base 1.1.1+git20200624+ds2
 _ZNSt10_HashtableINSt7__cxx1112basic_stringIcSt11char_traitsIcESaIcEEESt4pairIKS5_St13unordered_mapIS5_S8_IS5_St10shared_ptrIN6opencc4DictEESt4hashIS5_ESt8equal_toIS5_ESaIS6_IS7_SC_EEESE_SG_SaIS6_IS7_SJ_EEEESaISN_ENSt8__detail10_Select1stESG_SE_NSP_18_Mod_range_hashingENSP_20_Default_ranged_hashENSP_20_Prime_rehash_policyENSP_17_Hashtable_traitsILb1ELb0ELb1EEEE12_Scoped_nodeD1Ev@Base 1.1.3+ds1
 _ZNSt10_HashtableINSt7__cxx1112basic_stringIcSt11char_traitsIcESaIcEEESt4pairIKS5_St13unordered_mapIS5_S8_IS5_St10shared_ptrIN6opencc4DictEESt4hashIS5_ESt8equal_toIS5_ESaIS6_IS7_SC_EEESE_SG_SaIS6_IS7_SJ_EEEESaISN_ENSt8__detail10_Select1stESG_SE_NSP_18_Mod_range_hashingENSP_20_Default_ranged_hashENSP_20_Prime_rehash_policyENSP_17_Hashtable_traitsILb1ELb0ELb1EEEE12_Scoped_nodeD2Ev@Base 1.1.3+ds1
 (subst)_ZNSt10_HashtableINSt7__cxx1112basic_stringIcSt11char_traitsIcESaIcEEESt4pairIKS5_St13unordered_mapIS5_S8_IS5_St10shared_ptrIN6opencc4DictEESt4hashIS5_ESt8equal_toIS5_ESaIS6_IS7_SC_EEESE_SG_SaIS6_IS7_SJ_EEEESaISN_ENSt8__detail10_Select1stESG_SE_NSP_18_Mod_range_hashingENSP_20_Default_ranged_hashENSP_20_Prime_rehash_policyENSP_17_Hashtable_traitsILb1ELb0ELb1EEEE9_M_rehashE{size_t}RK{size_t}@Base 1.1.1+git20200624+ds2
 _ZNSt10_HashtableINSt7__cxx1112basic_stringIcSt11char_traitsIcESaIcEEESt4pairIKS5_St13unordered_mapIS5_St10shared_ptrIN6opencc4DictEESt4hashIS5_ESt8equal_toIS5_ESaIS6_IS7_SC_EEEESaISK_ENSt8__detail10_Select1stESG_SE_NSM_18_Mod_range_hashingENSM_20_Default_ranged_hashENSM_20_Prime_rehash_policyENSM_17_Hashtable_traitsILb1ELb0ELb1EEEE12_Scoped_nodeD1Ev@Base 1.1.1+git20200624+ds2
 _ZNSt10_HashtableINSt7__cxx1112basic_stringIcSt11char_traitsIcESaIcEEESt4pairIKS5_St13unordered_mapIS5_St10shared_ptrIN6opencc4DictEESt4hashIS5_ESt8equal_toIS5_ESaIS6_IS7_SC_EEEESaISK_ENSt8__detail10_Select1stESG_SE_NSM_18_Mod_range_hashingENSM_20_Default_ranged_hashENSM_20_Prime_rehash_policyENSM_17_Hashtable_traitsILb1ELb0ELb1EEEE12_Scoped_nodeD2Ev@Base 1.1.1+git20200624+ds2
 (subst)_ZNSt10_HashtableINSt7__cxx1112basic_stringIcSt11char_traitsIcESaIcEEESt4pairIKS5_St13unordered_mapIS5_St10shared_ptrIN6opencc4DictEESt4hashIS5_ESt8equal_toIS5_ESaIS6_IS7_SC_EEEESaISK_ENSt8__detail10_Select1stESG_SE_NSM_18_Mod_range_hashingENSM_20_Default_ranged_hashENSM_20_Prime_rehash_policyENSM_17_Hashtable_traitsILb1ELb0ELb1EEEE9_M_rehashE{size_t}RK{size_t}@Base 1.1.1+git20200624+ds2
 (subst)_ZNSt10_HashtableINSt7__cxx1112basic_stringIcSt11char_traitsIcESaIcEEESt4pairIKS5_iESaIS8_ENSt8__detail10_Select1stESt8equal_toIS5_ESt4hashIS5_ENSA_18_Mod_range_hashingENSA_20_Default_ranged_hashENSA_20_Prime_rehash_policyENSA_17_Hashtable_traitsILb1ELb0ELb1EEEE9_M_rehashE{size_t}RK{size_t}@Base 1.1.1+git20200624+ds2
 (optional=templinst)_ZNSt12_Destroy_auxILb0EE9__destroyIPNSt7__cxx1112basic_stringIcSt11char_traitsIcESaIcEEEEEvT_S9_@Base 1.1.3+ds1
 (optional=templinst|arch=armel riscv64)_ZNSt15_Sp_counted_ptrIDnLN9__gnu_cxx12_Lock_policyE1EE10_M_disposeEv@Base 1.1.1+git20200624+ds2
 (arch=!armel !riscv64)_ZNSt15_Sp_counted_ptrIDnLN9__gnu_cxx12_Lock_policyE2EE10_M_disposeEv@Base 1.1.1+git20200624+ds2
 (optional=templinst|arch=armel riscv64)_ZNSt15_Sp_counted_ptrIPN6opencc10BinaryDictELN9__gnu_cxx12_Lock_policyE1EE10_M_destroyEv@Base 1.1.1+git20200624+ds2
 (optional=templinst|arch=armel riscv64)_ZNSt15_Sp_counted_ptrIPN6opencc10BinaryDictELN9__gnu_cxx12_Lock_policyE1EE10_M_disposeEv@Base 1.1.1+git20200624+ds2
 (optional=templinst|arch=armel riscv64)_ZNSt15_Sp_counted_ptrIPN6opencc10BinaryDictELN9__gnu_cxx12_Lock_policyE1EE14_M_get_deleterERKSt9type_info@Base 1.1.1+git20200624+ds2
 (optional=templinst|arch=armel riscv64)_ZNSt15_Sp_counted_ptrIPN6opencc10BinaryDictELN9__gnu_cxx12_Lock_policyE1EED0Ev@Base 1.1.1+git20200624+ds2
 (optional=templinst|arch=armel riscv64)_ZNSt15_Sp_counted_ptrIPN6opencc10BinaryDictELN9__gnu_cxx12_Lock_policyE1EED1Ev@Base 1.1.1+git20200624+ds2
 (optional=templinst|arch=armel riscv64)_ZNSt15_Sp_counted_ptrIPN6opencc10BinaryDictELN9__gnu_cxx12_Lock_policyE1EED2Ev@Base 1.1.1+git20200624+ds2
 (arch=!armel !riscv64)_ZNSt15_Sp_counted_ptrIPN6opencc10BinaryDictELN9__gnu_cxx12_Lock_policyE2EE10_M_destroyEv@Base 1.1.1+git20200624+ds2
 (arch=!armel !riscv64)_ZNSt15_Sp_counted_ptrIPN6opencc10BinaryDictELN9__gnu_cxx12_Lock_policyE2EE10_M_disposeEv@Base 1.1.1+git20200624+ds2
 (arch=!armel !riscv64)_ZNSt15_Sp_counted_ptrIPN6opencc10BinaryDictELN9__gnu_cxx12_Lock_policyE2EE14_M_get_deleterERKSt9type_info@Base 1.1.1+git20200624+ds2
 (arch=!armel !riscv64)_ZNSt15_Sp_counted_ptrIPN6opencc10BinaryDictELN9__gnu_cxx12_Lock_policyE2EED0Ev@Base 1.1.1+git20200624+ds2
 (arch=!armel !riscv64)_ZNSt15_Sp_counted_ptrIPN6opencc10BinaryDictELN9__gnu_cxx12_Lock_policyE2EED1Ev@Base 1.1.1+git20200624+ds2
 (arch=!armel !riscv64)_ZNSt15_Sp_counted_ptrIPN6opencc10BinaryDictELN9__gnu_cxx12_Lock_policyE2EED2Ev@Base 1.1.1+git20200624+ds2
 (optional=templinst|arch=armel riscv64)_ZNSt15_Sp_counted_ptrIPN6opencc10ConversionELN9__gnu_cxx12_Lock_policyE1EE10_M_destroyEv@Base 1.1.1+git20200624+ds2
 (optional=templinst|arch=armel riscv64)_ZNSt15_Sp_counted_ptrIPN6opencc10ConversionELN9__gnu_cxx12_Lock_policyE1EE10_M_disposeEv@Base 1.1.1+git20200624+ds2
 (optional=templinst|arch=armel riscv64)_ZNSt15_Sp_counted_ptrIPN6opencc10ConversionELN9__gnu_cxx12_Lock_policyE1EE14_M_get_deleterERKSt9type_info@Base 1.1.1+git20200624+ds2
 (optional=templinst|arch=armel riscv64)_ZNSt15_Sp_counted_ptrIPN6opencc10ConversionELN9__gnu_cxx12_Lock_policyE1EED0Ev@Base 1.1.1+git20200624+ds2
 (optional=templinst|arch=armel riscv64)_ZNSt15_Sp_counted_ptrIPN6opencc10ConversionELN9__gnu_cxx12_Lock_policyE1EED1Ev@Base 1.1.1+git20200624+ds2
 (optional=templinst|arch=armel riscv64)_ZNSt15_Sp_counted_ptrIPN6opencc10ConversionELN9__gnu_cxx12_Lock_policyE1EED2Ev@Base 1.1.1+git20200624+ds2
 (arch=!armel !riscv64)_ZNSt15_Sp_counted_ptrIPN6opencc10ConversionELN9__gnu_cxx12_Lock_policyE2EE10_M_destroyEv@Base 1.1.1+git20200624+ds2
 (arch=!armel !riscv64)_ZNSt15_Sp_counted_ptrIPN6opencc10ConversionELN9__gnu_cxx12_Lock_policyE2EE10_M_disposeEv@Base 1.1.1+git20200624+ds2
 (arch=!armel !riscv64)_ZNSt15_Sp_counted_ptrIPN6opencc10ConversionELN9__gnu_cxx12_Lock_policyE2EE14_M_get_deleterERKSt9type_info@Base 1.1.1+git20200624+ds2
 (arch=!armel !riscv64)_ZNSt15_Sp_counted_ptrIPN6opencc10ConversionELN9__gnu_cxx12_Lock_policyE2EED0Ev@Base 1.1.1+git20200624+ds2
 (arch=!armel !riscv64)_ZNSt15_Sp_counted_ptrIPN6opencc10ConversionELN9__gnu_cxx12_Lock_policyE2EED1Ev@Base 1.1.1+git20200624+ds2
 (arch=!armel !riscv64)_ZNSt15_Sp_counted_ptrIPN6opencc10ConversionELN9__gnu_cxx12_Lock_policyE2EED2Ev@Base 1.1.1+git20200624+ds2
 (optional=templinst|arch=armel riscv64)_ZNSt15_Sp_counted_ptrIPN6opencc10MarisaDictELN9__gnu_cxx12_Lock_policyE1EE10_M_destroyEv@Base 1.1.1+git20200624+ds2
 (optional=templinst|arch=armel riscv64)_ZNSt15_Sp_counted_ptrIPN6opencc10MarisaDictELN9__gnu_cxx12_Lock_policyE1EE10_M_disposeEv@Base 1.1.1+git20200624+ds2
 (optional=templinst|arch=armel riscv64)_ZNSt15_Sp_counted_ptrIPN6opencc10MarisaDictELN9__gnu_cxx12_Lock_policyE1EE14_M_get_deleterERKSt9type_info@Base 1.1.1+git20200624+ds2
 (optional=templinst|arch=armel riscv64)_ZNSt15_Sp_counted_ptrIPN6opencc10MarisaDictELN9__gnu_cxx12_Lock_policyE1EED0Ev@Base 1.1.1+git20200624+ds2
 (optional=templinst|arch=armel riscv64)_ZNSt15_Sp_counted_ptrIPN6opencc10MarisaDictELN9__gnu_cxx12_Lock_policyE1EED1Ev@Base 1.1.1+git20200624+ds2
 (optional=templinst|arch=armel riscv64)_ZNSt15_Sp_counted_ptrIPN6opencc10MarisaDictELN9__gnu_cxx12_Lock_policyE1EED2Ev@Base 1.1.1+git20200624+ds2
 (arch=!armel !riscv64)_ZNSt15_Sp_counted_ptrIPN6opencc10MarisaDictELN9__gnu_cxx12_Lock_policyE2EE10_M_destroyEv@Base 1.1.1+git20200624+ds2
 (arch=!armel !riscv64)_ZNSt15_Sp_counted_ptrIPN6opencc10MarisaDictELN9__gnu_cxx12_Lock_policyE2EE10_M_disposeEv@Base 1.1.1+git20200624+ds2
 (arch=!armel !riscv64)_ZNSt15_Sp_counted_ptrIPN6opencc10MarisaDictELN9__gnu_cxx12_Lock_policyE2EE14_M_get_deleterERKSt9type_info@Base 1.1.1+git20200624+ds2
 (arch=!armel !riscv64)_ZNSt15_Sp_counted_ptrIPN6opencc10MarisaDictELN9__gnu_cxx12_Lock_policyE2EED0Ev@Base 1.1.1+git20200624+ds2
 (arch=!armel !riscv64)_ZNSt15_Sp_counted_ptrIPN6opencc10MarisaDictELN9__gnu_cxx12_Lock_policyE2EED1Ev@Base 1.1.1+git20200624+ds2
 (arch=!armel !riscv64)_ZNSt15_Sp_counted_ptrIPN6opencc10MarisaDictELN9__gnu_cxx12_Lock_policyE2EED2Ev@Base 1.1.1+git20200624+ds2
 (optional=templinst|arch=armel riscv64)_ZNSt15_Sp_counted_ptrIPN6opencc15ConversionChainELN9__gnu_cxx12_Lock_policyE1EE10_M_destroyEv@Base 1.1.1+git20200624+ds2
 (optional=templinst|arch=armel riscv64)_ZNSt15_Sp_counted_ptrIPN6opencc15ConversionChainELN9__gnu_cxx12_Lock_policyE1EE10_M_disposeEv@Base 1.1.1+git20200624+ds2
 (optional=templinst|arch=armel riscv64)_ZNSt15_Sp_counted_ptrIPN6opencc15ConversionChainELN9__gnu_cxx12_Lock_policyE1EE14_M_get_deleterERKSt9type_info@Base 1.1.1+git20200624+ds2
 (optional=templinst|arch=armel riscv64)_ZNSt15_Sp_counted_ptrIPN6opencc15ConversionChainELN9__gnu_cxx12_Lock_policyE1EED0Ev@Base 1.1.1+git20200624+ds2
 (optional=templinst|arch=armel riscv64)_ZNSt15_Sp_counted_ptrIPN6opencc15ConversionChainELN9__gnu_cxx12_Lock_policyE1EED1Ev@Base 1.1.1+git20200624+ds2
 (optional=templinst|arch=armel riscv64)_ZNSt15_Sp_counted_ptrIPN6opencc15ConversionChainELN9__gnu_cxx12_Lock_policyE1EED2Ev@Base 1.1.1+git20200624+ds2
 (arch=!armel !riscv64)_ZNSt15_Sp_counted_ptrIPN6opencc15ConversionChainELN9__gnu_cxx12_Lock_policyE2EE10_M_destroyEv@Base 1.1.1+git20200624+ds2
 (arch=!armel !riscv64)_ZNSt15_Sp_counted_ptrIPN6opencc15ConversionChainELN9__gnu_cxx12_Lock_policyE2EE10_M_disposeEv@Base 1.1.1+git20200624+ds2
 (arch=!armel !riscv64)_ZNSt15_Sp_counted_ptrIPN6opencc15ConversionChainELN9__gnu_cxx12_Lock_policyE2EE14_M_get_deleterERKSt9type_info@Base 1.1.1+git20200624+ds2
 (arch=!armel !riscv64)_ZNSt15_Sp_counted_ptrIPN6opencc15ConversionChainELN9__gnu_cxx12_Lock_policyE2EED0Ev@Base 1.1.1+git20200624+ds2
 (arch=!armel !riscv64)_ZNSt15_Sp_counted_ptrIPN6opencc15ConversionChainELN9__gnu_cxx12_Lock_policyE2EED1Ev@Base 1.1.1+git20200624+ds2
 (arch=!armel !riscv64)_ZNSt15_Sp_counted_ptrIPN6opencc15ConversionChainELN9__gnu_cxx12_Lock_policyE2EED2Ev@Base 1.1.1+git20200624+ds2
 (optional=templinst|arch=armel riscv64)_ZNSt15_Sp_counted_ptrIPN6opencc16SerializedValuesELN9__gnu_cxx12_Lock_policyE1EE10_M_destroyEv@Base 1.1.1+git20200624+ds2
 (optional=templinst|arch=armel riscv64)_ZNSt15_Sp_counted_ptrIPN6opencc16SerializedValuesELN9__gnu_cxx12_Lock_policyE1EE10_M_disposeEv@Base 1.1.1+git20200624+ds2
 (optional=templinst|arch=armel riscv64)_ZNSt15_Sp_counted_ptrIPN6opencc16SerializedValuesELN9__gnu_cxx12_Lock_policyE1EE14_M_get_deleterERKSt9type_info@Base 1.1.1+git20200624+ds2
 (optional=templinst|arch=armel riscv64)_ZNSt15_Sp_counted_ptrIPN6opencc16SerializedValuesELN9__gnu_cxx12_Lock_policyE1EED0Ev@Base 1.1.1+git20200624+ds2
 (optional=templinst|arch=armel riscv64)_ZNSt15_Sp_counted_ptrIPN6opencc16SerializedValuesELN9__gnu_cxx12_Lock_policyE1EED1Ev@Base 1.1.1+git20200624+ds2
 (optional=templinst|arch=armel riscv64)_ZNSt15_Sp_counted_ptrIPN6opencc16SerializedValuesELN9__gnu_cxx12_Lock_policyE1EED2Ev@Base 1.1.1+git20200624+ds2
 (arch=!armel !riscv64)_ZNSt15_Sp_counted_ptrIPN6opencc16SerializedValuesELN9__gnu_cxx12_Lock_policyE2EE10_M_destroyEv@Base 1.1.1+git20200624+ds2
 (arch=!armel !riscv64)_ZNSt15_Sp_counted_ptrIPN6opencc16SerializedValuesELN9__gnu_cxx12_Lock_policyE2EE10_M_disposeEv@Base 1.1.1+git20200624+ds2
 (arch=!armel !riscv64)_ZNSt15_Sp_counted_ptrIPN6opencc16SerializedValuesELN9__gnu_cxx12_Lock_policyE2EE14_M_get_deleterERKSt9type_info@Base 1.1.1+git20200624+ds2
 (arch=!armel !riscv64)_ZNSt15_Sp_counted_ptrIPN6opencc16SerializedValuesELN9__gnu_cxx12_Lock_policyE2EED0Ev@Base 1.1.1+git20200624+ds2
 (arch=!armel !riscv64)_ZNSt15_Sp_counted_ptrIPN6opencc16SerializedValuesELN9__gnu_cxx12_Lock_policyE2EED1Ev@Base 1.1.1+git20200624+ds2
 (arch=!armel !riscv64)_ZNSt15_Sp_counted_ptrIPN6opencc16SerializedValuesELN9__gnu_cxx12_Lock_policyE2EED2Ev@Base 1.1.1+git20200624+ds2
 (optional=templinst|arch=armel riscv64)_ZNSt15_Sp_counted_ptrIPN6opencc20MaxMatchSegmentationELN9__gnu_cxx12_Lock_policyE1EE10_M_destroyEv@Base 1.1.1+git20200624+ds2
 (optional=templinst|arch=armel riscv64)_ZNSt15_Sp_counted_ptrIPN6opencc20MaxMatchSegmentationELN9__gnu_cxx12_Lock_policyE1EE10_M_disposeEv@Base 1.1.1+git20200624+ds2
 (optional=templinst|arch=armel riscv64)_ZNSt15_Sp_counted_ptrIPN6opencc20MaxMatchSegmentationELN9__gnu_cxx12_Lock_policyE1EE14_M_get_deleterERKSt9type_info@Base 1.1.1+git20200624+ds2
 (optional=templinst|arch=armel riscv64)_ZNSt15_Sp_counted_ptrIPN6opencc20MaxMatchSegmentationELN9__gnu_cxx12_Lock_policyE1EED0Ev@Base 1.1.1+git20200624+ds2
 (optional=templinst|arch=armel riscv64)_ZNSt15_Sp_counted_ptrIPN6opencc20MaxMatchSegmentationELN9__gnu_cxx12_Lock_policyE1EED1Ev@Base 1.1.1+git20200624+ds2
 (optional=templinst|arch=armel riscv64)_ZNSt15_Sp_counted_ptrIPN6opencc20MaxMatchSegmentationELN9__gnu_cxx12_Lock_policyE1EED2Ev@Base 1.1.1+git20200624+ds2
 (arch=!armel !riscv64)_ZNSt15_Sp_counted_ptrIPN6opencc20MaxMatchSegmentationELN9__gnu_cxx12_Lock_policyE2EE10_M_destroyEv@Base 1.1.1+git20200624+ds2
 (arch=!armel !riscv64)_ZNSt15_Sp_counted_ptrIPN6opencc20MaxMatchSegmentationELN9__gnu_cxx12_Lock_policyE2EE10_M_disposeEv@Base 1.1.1+git20200624+ds2
 (arch=!armel !riscv64)_ZNSt15_Sp_counted_ptrIPN6opencc20MaxMatchSegmentationELN9__gnu_cxx12_Lock_policyE2EE14_M_get_deleterERKSt9type_info@Base 1.1.1+git20200624+ds2
 (arch=!armel !riscv64)_ZNSt15_Sp_counted_ptrIPN6opencc20MaxMatchSegmentationELN9__gnu_cxx12_Lock_policyE2EED0Ev@Base 1.1.1+git20200624+ds2
 (arch=!armel !riscv64)_ZNSt15_Sp_counted_ptrIPN6opencc20MaxMatchSegmentationELN9__gnu_cxx12_Lock_policyE2EED1Ev@Base 1.1.1+git20200624+ds2
 (arch=!armel !riscv64)_ZNSt15_Sp_counted_ptrIPN6opencc20MaxMatchSegmentationELN9__gnu_cxx12_Lock_policyE2EED2Ev@Base 1.1.1+git20200624+ds2
 (optional=templinst|arch=armel riscv64)_ZNSt15_Sp_counted_ptrIPN6opencc7LexiconELN9__gnu_cxx12_Lock_policyE1EE10_M_destroyEv@Base 1.1.1+git20200624+ds2
 (optional=templinst|arch=armel riscv64)_ZNSt15_Sp_counted_ptrIPN6opencc7LexiconELN9__gnu_cxx12_Lock_policyE1EE10_M_disposeEv@Base 1.1.1+git20200624+ds2
 (optional=templinst|arch=armel riscv64)_ZNSt15_Sp_counted_ptrIPN6opencc7LexiconELN9__gnu_cxx12_Lock_policyE1EE14_M_get_deleterERKSt9type_info@Base 1.1.1+git20200624+ds2
 (optional=templinst|arch=armel riscv64)_ZNSt15_Sp_counted_ptrIPN6opencc7LexiconELN9__gnu_cxx12_Lock_policyE1EED0Ev@Base 1.1.1+git20200624+ds2
 (optional=templinst|arch=armel riscv64)_ZNSt15_Sp_counted_ptrIPN6opencc7LexiconELN9__gnu_cxx12_Lock_policyE1EED1Ev@Base 1.1.1+git20200624+ds2
 (optional=templinst|arch=armel riscv64)_ZNSt15_Sp_counted_ptrIPN6opencc7LexiconELN9__gnu_cxx12_Lock_policyE1EED2Ev@Base 1.1.1+git20200624+ds2
 (arch=!armel !riscv64)_ZNSt15_Sp_counted_ptrIPN6opencc7LexiconELN9__gnu_cxx12_Lock_policyE2EE10_M_destroyEv@Base 1.1.1+git20200624+ds2
 (arch=!armel !riscv64)_ZNSt15_Sp_counted_ptrIPN6opencc7LexiconELN9__gnu_cxx12_Lock_policyE2EE10_M_disposeEv@Base 1.1.1+git20200624+ds2
 (arch=!armel !riscv64)_ZNSt15_Sp_counted_ptrIPN6opencc7LexiconELN9__gnu_cxx12_Lock_policyE2EE14_M_get_deleterERKSt9type_info@Base 1.1.1+git20200624+ds2
 (arch=!armel !riscv64)_ZNSt15_Sp_counted_ptrIPN6opencc7LexiconELN9__gnu_cxx12_Lock_policyE2EED0Ev@Base 1.1.1+git20200624+ds2
 (arch=!armel !riscv64)_ZNSt15_Sp_counted_ptrIPN6opencc7LexiconELN9__gnu_cxx12_Lock_policyE2EED1Ev@Base 1.1.1+git20200624+ds2
 (arch=!armel !riscv64)_ZNSt15_Sp_counted_ptrIPN6opencc7LexiconELN9__gnu_cxx12_Lock_policyE2EED2Ev@Base 1.1.1+git20200624+ds2
 (optional=templinst|arch=armel riscv64)_ZNSt15_Sp_counted_ptrIPN6opencc8SegmentsELN9__gnu_cxx12_Lock_policyE1EE10_M_destroyEv@Base 1.1.1+git20200624+ds2
 (optional=templinst|arch=armel riscv64)_ZNSt15_Sp_counted_ptrIPN6opencc8SegmentsELN9__gnu_cxx12_Lock_policyE1EE10_M_disposeEv@Base 1.1.1+git20200624+ds2
 (optional=templinst|arch=armel riscv64)_ZNSt15_Sp_counted_ptrIPN6opencc8SegmentsELN9__gnu_cxx12_Lock_policyE1EE14_M_get_deleterERKSt9type_info@Base 1.1.1+git20200624+ds2
 (optional=templinst|arch=armel riscv64)_ZNSt15_Sp_counted_ptrIPN6opencc8SegmentsELN9__gnu_cxx12_Lock_policyE1EED0Ev@Base 1.1.1+git20200624+ds2
 (optional=templinst|arch=armel riscv64)_ZNSt15_Sp_counted_ptrIPN6opencc8SegmentsELN9__gnu_cxx12_Lock_policyE1EED1Ev@Base 1.1.1+git20200624+ds2
 (optional=templinst|arch=armel riscv64)_ZNSt15_Sp_counted_ptrIPN6opencc8SegmentsELN9__gnu_cxx12_Lock_policyE1EED2Ev@Base 1.1.1+git20200624+ds2
 (arch=!armel !riscv64)_ZNSt15_Sp_counted_ptrIPN6opencc8SegmentsELN9__gnu_cxx12_Lock_policyE2EE10_M_destroyEv@Base 1.1.1+git20200624+ds2
 (arch=!armel !riscv64)_ZNSt15_Sp_counted_ptrIPN6opencc8SegmentsELN9__gnu_cxx12_Lock_policyE2EE10_M_disposeEv@Base 1.1.1+git20200624+ds2
 (arch=!armel !riscv64)_ZNSt15_Sp_counted_ptrIPN6opencc8SegmentsELN9__gnu_cxx12_Lock_policyE2EE14_M_get_deleterERKSt9type_info@Base 1.1.1+git20200624+ds2
 (arch=!armel !riscv64)_ZNSt15_Sp_counted_ptrIPN6opencc8SegmentsELN9__gnu_cxx12_Lock_policyE2EED0Ev@Base 1.1.1+git20200624+ds2
 (arch=!armel !riscv64)_ZNSt15_Sp_counted_ptrIPN6opencc8SegmentsELN9__gnu_cxx12_Lock_policyE2EED1Ev@Base 1.1.1+git20200624+ds2
 (arch=!armel !riscv64)_ZNSt15_Sp_counted_ptrIPN6opencc8SegmentsELN9__gnu_cxx12_Lock_policyE2EED2Ev@Base 1.1.1+git20200624+ds2
 (optional=templinst|arch=armel riscv64)_ZNSt15_Sp_counted_ptrIPN6opencc8TextDictELN9__gnu_cxx12_Lock_policyE1EE10_M_destroyEv@Base 1.1.1+git20200624+ds2
 (optional=templinst|arch=armel riscv64)_ZNSt15_Sp_counted_ptrIPN6opencc8TextDictELN9__gnu_cxx12_Lock_policyE1EE10_M_disposeEv@Base 1.1.1+git20200624+ds2
 (optional=templinst|arch=armel riscv64)_ZNSt15_Sp_counted_ptrIPN6opencc8TextDictELN9__gnu_cxx12_Lock_policyE1EE14_M_get_deleterERKSt9type_info@Base 1.1.1+git20200624+ds2
 (optional=templinst|arch=armel riscv64)_ZNSt15_Sp_counted_ptrIPN6opencc8TextDictELN9__gnu_cxx12_Lock_policyE1EED0Ev@Base 1.1.1+git20200624+ds2
 (optional=templinst|arch=armel riscv64)_ZNSt15_Sp_counted_ptrIPN6opencc8TextDictELN9__gnu_cxx12_Lock_policyE1EED1Ev@Base 1.1.1+git20200624+ds2
 (optional=templinst|arch=armel riscv64)_ZNSt15_Sp_counted_ptrIPN6opencc8TextDictELN9__gnu_cxx12_Lock_policyE1EED2Ev@Base 1.1.1+git20200624+ds2
 (arch=!armel !riscv64)_ZNSt15_Sp_counted_ptrIPN6opencc8TextDictELN9__gnu_cxx12_Lock_policyE2EE10_M_destroyEv@Base 1.1.1+git20200624+ds2
 (arch=!armel !riscv64)_ZNSt15_Sp_counted_ptrIPN6opencc8TextDictELN9__gnu_cxx12_Lock_policyE2EE10_M_disposeEv@Base 1.1.1+git20200624+ds2
 (arch=!armel !riscv64)_ZNSt15_Sp_counted_ptrIPN6opencc8TextDictELN9__gnu_cxx12_Lock_policyE2EE14_M_get_deleterERKSt9type_info@Base 1.1.1+git20200624+ds2
 (arch=!armel !riscv64)_ZNSt15_Sp_counted_ptrIPN6opencc8TextDictELN9__gnu_cxx12_Lock_policyE2EED0Ev@Base 1.1.1+git20200624+ds2
 (arch=!armel !riscv64)_ZNSt15_Sp_counted_ptrIPN6opencc8TextDictELN9__gnu_cxx12_Lock_policyE2EED1Ev@Base 1.1.1+git20200624+ds2
 (arch=!armel !riscv64)_ZNSt15_Sp_counted_ptrIPN6opencc8TextDictELN9__gnu_cxx12_Lock_policyE2EED2Ev@Base 1.1.1+git20200624+ds2
 (optional=templinst|arch=armel riscv64)_ZNSt15_Sp_counted_ptrIPN6opencc9ConverterELN9__gnu_cxx12_Lock_policyE1EE10_M_destroyEv@Base 1.1.1+git20200624+ds2
 (optional=templinst|arch=armel riscv64)_ZNSt15_Sp_counted_ptrIPN6opencc9ConverterELN9__gnu_cxx12_Lock_policyE1EE10_M_disposeEv@Base 1.1.1+git20200624+ds2
 (optional=templinst|arch=armel riscv64)_ZNSt15_Sp_counted_ptrIPN6opencc9ConverterELN9__gnu_cxx12_Lock_policyE1EE14_M_get_deleterERKSt9type_info@Base 1.1.1+git20200624+ds2
 (optional=templinst|arch=armel riscv64)_ZNSt15_Sp_counted_ptrIPN6opencc9ConverterELN9__gnu_cxx12_Lock_policyE1EED0Ev@Base 1.1.1+git20200624+ds2
 (optional=templinst|arch=armel riscv64)_ZNSt15_Sp_counted_ptrIPN6opencc9ConverterELN9__gnu_cxx12_Lock_policyE1EED1Ev@Base 1.1.1+git20200624+ds2
 (optional=templinst|arch=armel riscv64)_ZNSt15_Sp_counted_ptrIPN6opencc9ConverterELN9__gnu_cxx12_Lock_policyE1EED2Ev@Base 1.1.1+git20200624+ds2
 (arch=!armel !riscv64)_ZNSt15_Sp_counted_ptrIPN6opencc9ConverterELN9__gnu_cxx12_Lock_policyE2EE10_M_destroyEv@Base 1.1.1+git20200624+ds2
 (arch=!armel !riscv64)_ZNSt15_Sp_counted_ptrIPN6opencc9ConverterELN9__gnu_cxx12_Lock_policyE2EE10_M_disposeEv@Base 1.1.1+git20200624+ds2
 (arch=!armel !riscv64)_ZNSt15_Sp_counted_ptrIPN6opencc9ConverterELN9__gnu_cxx12_Lock_policyE2EE14_M_get_deleterERKSt9type_info@Base 1.1.1+git20200624+ds2
 (arch=!armel !riscv64)_ZNSt15_Sp_counted_ptrIPN6opencc9ConverterELN9__gnu_cxx12_Lock_policyE2EED0Ev@Base 1.1.1+git20200624+ds2
 (arch=!armel !riscv64)_ZNSt15_Sp_counted_ptrIPN6opencc9ConverterELN9__gnu_cxx12_Lock_policyE2EED1Ev@Base 1.1.1+git20200624+ds2
 (arch=!armel !riscv64)_ZNSt15_Sp_counted_ptrIPN6opencc9ConverterELN9__gnu_cxx12_Lock_policyE2EED2Ev@Base 1.1.1+git20200624+ds2
 (optional=templinst|arch=armel riscv64)_ZNSt15_Sp_counted_ptrIPN6opencc9DartsDictELN9__gnu_cxx12_Lock_policyE1EE10_M_destroyEv@Base 1.1.1+git20200624+ds2
 (optional=templinst|arch=armel riscv64)_ZNSt15_Sp_counted_ptrIPN6opencc9DartsDictELN9__gnu_cxx12_Lock_policyE1EE10_M_disposeEv@Base 1.1.1+git20200624+ds2
 (optional=templinst|arch=armel riscv64)_ZNSt15_Sp_counted_ptrIPN6opencc9DartsDictELN9__gnu_cxx12_Lock_policyE1EE14_M_get_deleterERKSt9type_info@Base 1.1.1+git20200624+ds2
 (optional=templinst|arch=armel riscv64)_ZNSt15_Sp_counted_ptrIPN6opencc9DartsDictELN9__gnu_cxx12_Lock_policyE1EED0Ev@Base 1.1.1+git20200624+ds2
 (optional=templinst|arch=armel riscv64)_ZNSt15_Sp_counted_ptrIPN6opencc9DartsDictELN9__gnu_cxx12_Lock_policyE1EED1Ev@Base 1.1.1+git20200624+ds2
 (optional=templinst|arch=armel riscv64)_ZNSt15_Sp_counted_ptrIPN6opencc9DartsDictELN9__gnu_cxx12_Lock_policyE1EED2Ev@Base 1.1.1+git20200624+ds2
 (arch=!armel !riscv64)_ZNSt15_Sp_counted_ptrIPN6opencc9DartsDictELN9__gnu_cxx12_Lock_policyE2EE10_M_destroyEv@Base 1.1.1+git20200624+ds2
 (arch=!armel !riscv64)_ZNSt15_Sp_counted_ptrIPN6opencc9DartsDictELN9__gnu_cxx12_Lock_policyE2EE10_M_disposeEv@Base 1.1.1+git20200624+ds2
 (arch=!armel !riscv64)_ZNSt15_Sp_counted_ptrIPN6opencc9DartsDictELN9__gnu_cxx12_Lock_policyE2EE14_M_get_deleterERKSt9type_info@Base 1.1.1+git20200624+ds2
 (arch=!armel !riscv64)_ZNSt15_Sp_counted_ptrIPN6opencc9DartsDictELN9__gnu_cxx12_Lock_policyE2EED0Ev@Base 1.1.1+git20200624+ds2
 (arch=!armel !riscv64)_ZNSt15_Sp_counted_ptrIPN6opencc9DartsDictELN9__gnu_cxx12_Lock_policyE2EED1Ev@Base 1.1.1+git20200624+ds2
 (arch=!armel !riscv64)_ZNSt15_Sp_counted_ptrIPN6opencc9DartsDictELN9__gnu_cxx12_Lock_policyE2EED2Ev@Base 1.1.1+git20200624+ds2
 (optional=templinst|arch=armel riscv64)_ZNSt15_Sp_counted_ptrIPN6opencc9DictGroupELN9__gnu_cxx12_Lock_policyE1EE10_M_destroyEv@Base 1.1.1+git20200624+ds2
 (optional=templinst|arch=armel riscv64)_ZNSt15_Sp_counted_ptrIPN6opencc9DictGroupELN9__gnu_cxx12_Lock_policyE1EE10_M_disposeEv@Base 1.1.1+git20200624+ds2
 (optional=templinst|arch=armel riscv64)_ZNSt15_Sp_counted_ptrIPN6opencc9DictGroupELN9__gnu_cxx12_Lock_policyE1EE14_M_get_deleterERKSt9type_info@Base 1.1.1+git20200624+ds2
 (optional=templinst|arch=armel riscv64)_ZNSt15_Sp_counted_ptrIPN6opencc9DictGroupELN9__gnu_cxx12_Lock_policyE1EED0Ev@Base 1.1.1+git20200624+ds2
 (optional=templinst|arch=armel riscv64)_ZNSt15_Sp_counted_ptrIPN6opencc9DictGroupELN9__gnu_cxx12_Lock_policyE1EED1Ev@Base 1.1.1+git20200624+ds2
 (optional=templinst|arch=armel riscv64)_ZNSt15_Sp_counted_ptrIPN6opencc9DictGroupELN9__gnu_cxx12_Lock_policyE1EED2Ev@Base 1.1.1+git20200624+ds2
 (arch=!armel !riscv64)_ZNSt15_Sp_counted_ptrIPN6opencc9DictGroupELN9__gnu_cxx12_Lock_policyE2EE10_M_destroyEv@Base 1.1.1+git20200624+ds2
 (arch=!armel !riscv64)_ZNSt15_Sp_counted_ptrIPN6opencc9DictGroupELN9__gnu_cxx12_Lock_policyE2EE10_M_disposeEv@Base 1.1.1+git20200624+ds2
 (arch=!armel !riscv64)_ZNSt15_Sp_counted_ptrIPN6opencc9DictGroupELN9__gnu_cxx12_Lock_policyE2EE14_M_get_deleterERKSt9type_info@Base 1.1.1+git20200624+ds2
 (arch=!armel !riscv64)_ZNSt15_Sp_counted_ptrIPN6opencc9DictGroupELN9__gnu_cxx12_Lock_policyE2EED0Ev@Base 1.1.1+git20200624+ds2
 (arch=!armel !riscv64)_ZNSt15_Sp_counted_ptrIPN6opencc9DictGroupELN9__gnu_cxx12_Lock_policyE2EED1Ev@Base 1.1.1+git20200624+ds2
 (arch=!armel !riscv64)_ZNSt15_Sp_counted_ptrIPN6opencc9DictGroupELN9__gnu_cxx12_Lock_policyE2EED2Ev@Base 1.1.1+git20200624+ds2
 (optional=templinst|arch=armel riscv64)_ZNSt16_Sp_counted_baseILN9__gnu_cxx12_Lock_policyE1EE10_M_destroyEv@Base 1.1.1+git20200624+ds2
 (optional=templinst|arch=armel riscv64)_ZNSt16_Sp_counted_baseILN9__gnu_cxx12_Lock_policyE1EE10_M_releaseEv@Base 1.1.1+git20200624+ds2
 (arch=!armel !riscv64)_ZNSt16_Sp_counted_baseILN9__gnu_cxx12_Lock_policyE2EE10_M_destroyEv@Base 1.1.1+git20200624+ds2
 (arch=!armel !riscv64)_ZNSt16_Sp_counted_baseILN9__gnu_cxx12_Lock_policyE2EE10_M_releaseEv@Base 1.1.1+git20200624+ds2
 _ZNSt17_Function_handlerIFbRKN6opencc13PhraseExtractERKNS0_19UTF8StringSliceBaseIhEEEPS8_E10_M_managerERSt9_Any_dataRKSB_St18_Manager_operation@Base 1.1.1+git20200624+ds2
 _ZNSt17_Function_handlerIFbRKN6opencc13PhraseExtractERKNS0_19UTF8StringSliceBaseIhEEEPS8_E9_M_invokeERKSt9_Any_dataS3_S7_@Base 1.1.1+git20200624+ds2
 _ZNSt6vectorIN5Darts15DoubleArrayImplIchijNS0_6LengthIcEEE6node_tESaIS5_EE17_M_realloc_insertIJRKS5_EEEvN9__gnu_cxx17__normal_iteratorIPS5_S7_EEDpOT_@Base 1.1.3+ds1
 _ZNSt6vectorIN6opencc19UTF8StringSliceBaseIhEESaIS2_EE17_M_realloc_insertIJRKS2_EEEvN9__gnu_cxx17__normal_iteratorIPS2_S4_EEDpOT_@Base 1.1.1+git20200624+ds2
 _ZNSt6vectorIN6opencc19UTF8StringSliceBaseIhEESaIS2_EE17_M_realloc_insertIJS2_EEEvN9__gnu_cxx17__normal_iteratorIPS2_S4_EEDpOT_@Base 1.1.1+git20200624+ds2
 (subst)_ZNSt6vectorIN6opencc19UTF8StringSliceBaseIhEESaIS2_EE7reserveE{size_t}@Base 1.1.1+git20200624+ds2
 _ZNSt6vectorIN6opencc19UTF8StringSliceBaseIhEESaIS2_EED1Ev@Base 1.1.1+git20200624+ds2
 _ZNSt6vectorIN6opencc19UTF8StringSliceBaseIhEESaIS2_EED2Ev@Base 1.1.1+git20200624+ds2
 (subst)_ZNSt6vectorINSt7__cxx1112basic_stringIcSt11char_traitsIcESaIcEEESaIS5_EE17_M_default_appendE{size_t}@Base 1.1.1+git20200624+ds2
 _ZNSt6vectorINSt7__cxx1112basic_stringIcSt11char_traitsIcESaIcEEESaIS5_EE17_M_realloc_insertIJRKS5_EEEvN9__gnu_cxx17__normal_iteratorIPS5_S7_EEDpOT_@Base 1.1.1+git20200624+ds2
 _ZNSt6vectorINSt7__cxx1112basic_stringIcSt11char_traitsIcESaIcEEESaIS5_EE17_M_realloc_insertIJS5_EEEvN9__gnu_cxx17__normal_iteratorIPS5_S7_EEDpOT_@Base 1.1.1+git20200624+ds2
 _ZNSt6vectorINSt7__cxx1112basic_stringIcSt11char_traitsIcESaIcEEESaIS5_EED1Ev@Base 1.1.1+git20200624+ds2
 _ZNSt6vectorINSt7__cxx1112basic_stringIcSt11char_traitsIcESaIcEEESaIS5_EED2Ev@Base 1.1.1+git20200624+ds2
 _ZNSt6vectorIPKN6opencc9DictEntryESaIS3_EE17_M_realloc_insertIJRKS3_EEEvN9__gnu_cxx17__normal_iteratorIPS3_S5_EEDpOT_@Base 1.1.1+git20200624+ds2
 _ZNSt6vectorIPKN6opencc9DictEntryESaIS3_EE17_M_realloc_insertIJS3_EEEvN9__gnu_cxx17__normal_iteratorIPS3_S5_EEDpOT_@Base 1.1.1+git20200624+ds2
 (subst)_ZNSt6vectorIPKcSaIS1_EE17_M_default_appendE{size_t}@Base 1.1.1+git20200624+ds2
 (optional=templinst)_ZNSt6vectorISt10unique_ptrIN6opencc9DictEntryESt14default_deleteIS2_EESaIS5_EE17_M_realloc_insertIJRPS2_EEEvN9__gnu_cxx17__normal_iteratorIPS5_S7_EEDpOT_@Base 1.1.3+ds1
 _ZNSt6vectorISt10unique_ptrIN6opencc9DictEntryESt14default_deleteIS2_EESaIS5_EED1Ev@Base 1.1.1+git20200624+ds2
 _ZNSt6vectorISt10unique_ptrIN6opencc9DictEntryESt14default_deleteIS2_EESaIS5_EED2Ev@Base 1.1.1+git20200624+ds2
 _ZNSt6vectorISt4pairIN6opencc19UTF8StringSliceBaseIhEENS1_13PhraseExtract7SignalsEESaIS6_EE17_M_realloc_insertIJS6_EEEvN9__gnu_cxx17__normal_iteratorIPS6_S8_EEDpOT_@Base 1.1.1+git20200624+ds2
 (optional=templinst|arch=alpha arm64 armel armhf hppa hurd-i386 i386 ia64 m68k mips64el mipsel powerpc ppc64 ppc64el riscv64 s390x sh4 sparc64|subst)_ZNSt6vectorISt4pairIN6opencc19UTF8StringSliceBaseIhEENS1_13PhraseExtract7SignalsEESaIS6_EE7reserveE{size_t}@Base 1.1.3+ds1
 (subst)_ZNSt6vectorISt4pairI{size_t}bESaIS1_EE17_M_realloc_insertIJS1_EEEvN9__gnu_cxx17__normal_iteratorIPS1_S3_EEDpOT_@Base 1.1.1+git20200624+ds2
 (subst)_ZNSt6vectorIiSaIiEE17_M_default_appendE{size_t}@Base 1.1.1+git20200624+ds2
 _ZNSt6vectorItSaItEE17_M_realloc_insertIJtEEEvN9__gnu_cxx17__normal_iteratorIPtS1_EEDpOT_@Base 1.1.1+git20200624+ds2
 (subst)_ZNSt6vectorI{size_t}SaI{size_t}EE17_M_realloc_insertIJ{size_t}EEEvN9__gnu_cxx17__normal_iteratorIP{size_t}S1_EEDpOT_@Base 1.1.1+git20200624+ds2
 _ZNSt7__cxx1110_List_baseISt10shared_ptrIN6opencc10ConversionEESaIS4_EE8_M_clearEv@Base 1.1.1+git20200624+ds2
 _ZNSt7__cxx1110_List_baseISt10shared_ptrIN6opencc4DictEESaIS4_EE8_M_clearEv@Base 1.1.1+git20200624+ds2
 (arch=!alpha !armel !armhf !hurd-i386 !i386 !kfreebsd-i386 !mipsel !powerpc !ppc64 !s390x|subst)_ZNSt8_Rb_treeI{size_t}St4pairIK{size_t}PKN6opencc9DictEntryEESt10_Select1stIS6_ESt4lessI{size_t}ESaIS6_EE29_M_get_insert_hint_unique_posESt23_Rb_tree_const_iteratorIS6_ERS1_@Base 1.1.1+git20200624+ds2
 (subst)_ZNSt8_Rb_treeI{size_t}St4pairIK{size_t}PKN6opencc9DictEntryEESt10_Select1stIS6_ESt4lessI{size_t}ESaIS6_EE8_M_eraseEPSt13_Rb_tree_nodeIS6_E@Base 1.1.1+git20200624+ds2
 (subst|arch=!amd64 !hurd-i386 !i386 !m68k !x32)_ZNSt8__detail9_Map_baseIN6opencc19UTF8StringSliceBaseIhEESt4pairIKS3_{size_t}ESaIS6_ENS_10_Select1stESt8equal_toIS3_ENS3_6HasherENS_18_Mod_range_hashingENS_20_Default_ranged_hashENS_20_Prime_rehash_policyENS_17_Hashtable_traitsILb1ELb0ELb1EEELb1EEixERS5_@Base 1.1.3+ds1
 _ZNSt8__detail9_Map_baseINSt7__cxx1112basic_stringIcSt11char_traitsIcESaIcEEESt4pairIKS6_St10shared_ptrIN6opencc4DictEEESaISD_ENS_10_Select1stESt8equal_toIS6_ESt4hashIS6_ENS_18_Mod_range_hashingENS_20_Default_ranged_hashENS_20_Prime_rehash_policyENS_17_Hashtable_traitsILb1ELb0ELb1EEELb1EEixERS8_@Base 1.1.1+git20200624+ds2
 _ZNSt8__detail9_Map_baseINSt7__cxx1112basic_stringIcSt11char_traitsIcESaIcEEESt4pairIKS6_St10unique_ptrIN6opencc9DictEntryESt14default_deleteISB_EEESaISF_ENS_10_Select1stESt8equal_toIS6_ESt4hashIS6_ENS_18_Mod_range_hashingENS_20_Default_ranged_hashENS_20_Prime_rehash_policyENS_17_Hashtable_traitsILb1ELb0ELb1EEELb1EEixEOS6_@Base 1.1.1+git20200624+ds2
 _ZNSt8__detail9_Map_baseINSt7__cxx1112basic_stringIcSt11char_traitsIcESaIcEEESt4pairIKS6_St10unique_ptrIN6opencc9DictEntryESt14default_deleteISB_EEESaISF_ENS_10_Select1stESt8equal_toIS6_ESt4hashIS6_ENS_18_Mod_range_hashingENS_20_Default_ranged_hashENS_20_Prime_rehash_policyENS_17_Hashtable_traitsILb1ELb0ELb1EEELb1EEixERS8_@Base 1.1.1+git20200624+ds2
 _ZNSt8__detail9_Map_baseINSt7__cxx1112basic_stringIcSt11char_traitsIcESaIcEEESt4pairIKS6_St13unordered_mapIS6_S9_IS6_St10shared_ptrIN6opencc4DictEESt4hashIS6_ESt8equal_toIS6_ESaIS7_IS8_SD_EEESF_SH_SaIS7_IS8_SK_EEEESaISO_ENS_10_Select1stESH_SF_NS_18_Mod_range_hashingENS_20_Default_ranged_hashENS_20_Prime_rehash_policyENS_17_Hashtable_traitsILb1ELb0ELb1EEELb1EEixERS8_@Base 1.1.1+git20200624+ds2
 _ZNSt8__detail9_Map_baseINSt7__cxx1112basic_stringIcSt11char_traitsIcESaIcEEESt4pairIKS6_St13unordered_mapIS6_St10shared_ptrIN6opencc4DictEESt4hashIS6_ESt8equal_toIS6_ESaIS7_IS8_SD_EEEESaISL_ENS_10_Select1stESH_SF_NS_18_Mod_range_hashingENS_20_Default_ranged_hashENS_20_Prime_rehash_policyENS_17_Hashtable_traitsILb1ELb0ELb1EEELb1EEixERS8_@Base 1.1.1+git20200624+ds2
 _ZNSt8__detail9_Map_baseINSt7__cxx1112basic_stringIcSt11char_traitsIcESaIcEEESt4pairIKS6_iESaIS9_ENS_10_Select1stESt8equal_toIS6_ESt4hashIS6_ENS_18_Mod_range_hashingENS_20_Default_ranged_hashENS_20_Prime_rehash_policyENS_17_Hashtable_traitsILb1ELb0ELb1EEELb1EEixEOS6_@Base 1.1.1+git20200624+ds2
 (subst)_ZSt13__adjust_heapIN9__gnu_cxx17__normal_iteratorIPSt10unique_ptrIN6opencc9DictEntryESt14default_deleteIS4_EESt6vectorIS7_SaIS7_EEEE{ssize_t}S7_NS0_5__ops15_Iter_comp_iterIPFbRKS7_SG_EEEEvT_T0_SL_T1_T2_@Base 1.1.1+git20200624+ds2
 _ZSt16__insertion_sortIN9__gnu_cxx17__normal_iteratorIPSt10unique_ptrIN6opencc9DictEntryESt14default_deleteIS4_EESt6vectorIS7_SaIS7_EEEENS0_5__ops15_Iter_comp_iterIPFbRKS7_SG_EEEEvT_SK_T0_@Base 1.1.1+git20200624+ds2
 (subst)_ZSt16__introsort_loopIN9__gnu_cxx17__normal_iteratorIPSt10unique_ptrIN6opencc9DictEntryESt14default_deleteIS4_EESt6vectorIS7_SaIS7_EEEE{ssize_t}NS0_5__ops15_Iter_comp_iterIPFbRKS7_SG_EEEEvT_SK_T0_T1_@Base 1.1.1+git20200624+ds2
 (subst)_ZSt16__introsort_loopIN9__gnu_cxx17__normal_iteratorIPSt4pairIN6opencc19UTF8StringSliceBaseIhEENS3_13PhraseExtract7SignalsEESt6vectorIS8_SaIS8_EEEE{ssize_t}NS0_5__ops15_Iter_comp_iterIZNS6_8DictType9BuildKeysEvEUlRKS8_SI_E_EEEvT_SL_T0_T1_@Base 1.1.1+git20200624+ds2
 _ZSt25__unguarded_linear_insertIN9__gnu_cxx17__normal_iteratorIPSt10unique_ptrIN6opencc9DictEntryESt14default_deleteIS4_EESt6vectorIS7_SaIS7_EEEENS0_5__ops14_Val_comp_iterIPFbRKS7_SG_EEEEvT_T0_@Base 1.1.1+git20200624+ds2
 (arch=amd64 arm64 kfreebsd-amd64 s390x x32)_ZStplIcSt11char_traitsIcESaIcEENSt7__cxx1112basic_stringIT_T0_T1_EEPKS5_OS8_@Base 1.1.1+git20200624+ds2
 _ZStplIcSt11char_traitsIcESaIcEENSt7__cxx1112basic_stringIT_T0_T1_EEPKS5_RKS8_@Base 1.1.1+git20200624+ds2
 _ZStplIcSt11char_traitsIcESaIcEENSt7__cxx1112basic_stringIT_T0_T1_EERKS8_SA_@Base 1.1.1+git20200624+ds2
 _ZTIFbRKN6opencc13PhraseExtractERKNS_19UTF8StringSliceBaseIhEEE@Base 1.1.1+git20200624+ds2
 (optional=templinst)_ZTIN5Darts15DoubleArrayImplIchijNS_6LengthIcEEEE@Base 1.1.3+ds1
 _ZTIN6opencc10BinaryDictE@Base 1.1.1+git20200624+ds2
 _ZTIN6opencc10MarisaDictE@Base 1.1.1+git20200624+ds2
 _ZTIN6opencc11InvalidUTF8E@Base 1.1.1+git20200624+ds2
 _ZTIN6opencc12FileNotFoundE@Base 1.1.1+git20200624+ds2
 _ZTIN6opencc12SegmentationE@Base 1.1.1+git20200624+ds2
 _ZTIN6opencc13InvalidFormatE@Base 1.1.1+git20200624+ds2
 _ZTIN6opencc13PhraseExtractE@Base 1.1.1+git20200624+ds2
 _ZTIN6opencc15FileNotWritableE@Base 1.1.1+git20200624+ds2
 _ZTIN6opencc15ShouldNotBeHereE@Base 1.1.1+git20200624+ds2
 _ZTIN6opencc16NoValueDictEntryE@Base 1.1.1+git20200624+ds2
 _ZTIN6opencc16SerializableDictE@Base 1.1.1+git20200624+ds2
 _ZTIN6opencc16SerializedValuesE@Base 1.1.1+git20200624+ds2
 _ZTIN6opencc19MultiValueDictEntryE@Base 1.1.1+git20200624+ds2
 _ZTIN6opencc20MaxMatchSegmentationE@Base 1.1.1+git20200624+ds2
 _ZTIN6opencc20SingleValueDictEntryE@Base 1.1.1+git20200624+ds2
 _ZTIN6opencc21InvalidTextDictionaryE@Base 1.1.1+git20200624+ds2
 _ZTIN6opencc22StrMultiValueDictEntryE@Base 1.1.1+git20200624+ds2
 _ZTIN6opencc23StrSingleValueDictEntryE@Base 1.1.1+git20200624+ds2
 _ZTIN6opencc4DictE@Base 1.1.1+git20200624+ds2
 _ZTIN6opencc6ConfigE@Base 1.1.1+git20200624+ds2
 _ZTIN6opencc8TextDictE@Base 1.1.1+git20200624+ds2
 _ZTIN6opencc9DartsDictE@Base 1.1.1+git20200624+ds2
 _ZTIN6opencc9DictEntryE@Base 1.1.1+git20200624+ds2
 _ZTIN6opencc9DictGroupE@Base 1.1.1+git20200624+ds2
 _ZTIN6opencc9ExceptionE@Base 1.1.1+git20200624+ds2
 (arch=armel riscv64)_ZTIN9__gnu_cxx7__mutexE@Base 1.1.1+git20200624+ds2
 _ZTIPFbRKN6opencc13PhraseExtractERKNS_19UTF8StringSliceBaseIhEEE@Base 1.1.1+git20200624+ds2
 (arch=armel riscv64)_ZTISt11_Mutex_baseILN9__gnu_cxx12_Lock_policyE1EE@Base 1.1.1+git20200624+ds2
 (arch=!armel !riscv64)_ZTISt11_Mutex_baseILN9__gnu_cxx12_Lock_policyE2EE@Base 1.1.1+git20200624+ds2
 (arch=armel riscv64)_ZTISt15_Sp_counted_ptrIPN6opencc10BinaryDictELN9__gnu_cxx12_Lock_policyE1EE@Base 1.1.1+git20200624+ds2
 (arch=!armel !riscv64)_ZTISt15_Sp_counted_ptrIPN6opencc10BinaryDictELN9__gnu_cxx12_Lock_policyE2EE@Base 1.1.1+git20200624+ds2
 (arch=armel riscv64)_ZTISt15_Sp_counted_ptrIPN6opencc10ConversionELN9__gnu_cxx12_Lock_policyE1EE@Base 1.1.1+git20200624+ds2
 (arch=!armel !riscv64)_ZTISt15_Sp_counted_ptrIPN6opencc10ConversionELN9__gnu_cxx12_Lock_policyE2EE@Base 1.1.1+git20200624+ds2
 (arch=armel riscv64)_ZTISt15_Sp_counted_ptrIPN6opencc10MarisaDictELN9__gnu_cxx12_Lock_policyE1EE@Base 1.1.1+git20200624+ds2
 (arch=!armel !riscv64)_ZTISt15_Sp_counted_ptrIPN6opencc10MarisaDictELN9__gnu_cxx12_Lock_policyE2EE@Base 1.1.1+git20200624+ds2
 (arch=armel riscv64)_ZTISt15_Sp_counted_ptrIPN6opencc15ConversionChainELN9__gnu_cxx12_Lock_policyE1EE@Base 1.1.1+git20200624+ds2
 (arch=!armel !riscv64)_ZTISt15_Sp_counted_ptrIPN6opencc15ConversionChainELN9__gnu_cxx12_Lock_policyE2EE@Base 1.1.1+git20200624+ds2
 (arch=armel riscv64)_ZTISt15_Sp_counted_ptrIPN6opencc16SerializedValuesELN9__gnu_cxx12_Lock_policyE1EE@Base 1.1.1+git20200624+ds2
 (arch=!armel !riscv64)_ZTISt15_Sp_counted_ptrIPN6opencc16SerializedValuesELN9__gnu_cxx12_Lock_policyE2EE@Base 1.1.1+git20200624+ds2
 (arch=armel riscv64)_ZTISt15_Sp_counted_ptrIPN6opencc20MaxMatchSegmentationELN9__gnu_cxx12_Lock_policyE1EE@Base 1.1.1+git20200624+ds2
 (arch=!armel !riscv64)_ZTISt15_Sp_counted_ptrIPN6opencc20MaxMatchSegmentationELN9__gnu_cxx12_Lock_policyE2EE@Base 1.1.1+git20200624+ds2
 (arch=armel riscv64)_ZTISt15_Sp_counted_ptrIPN6opencc7LexiconELN9__gnu_cxx12_Lock_policyE1EE@Base 1.1.1+git20200624+ds2
 (arch=!armel !riscv64)_ZTISt15_Sp_counted_ptrIPN6opencc7LexiconELN9__gnu_cxx12_Lock_policyE2EE@Base 1.1.1+git20200624+ds2
 (arch=armel riscv64)_ZTISt15_Sp_counted_ptrIPN6opencc8SegmentsELN9__gnu_cxx12_Lock_policyE1EE@Base 1.1.1+git20200624+ds2
 (arch=!armel !riscv64)_ZTISt15_Sp_counted_ptrIPN6opencc8SegmentsELN9__gnu_cxx12_Lock_policyE2EE@Base 1.1.1+git20200624+ds2
 (arch=armel riscv64)_ZTISt15_Sp_counted_ptrIPN6opencc8TextDictELN9__gnu_cxx12_Lock_policyE1EE@Base 1.1.1+git20200624+ds2
 (arch=!armel !riscv64)_ZTISt15_Sp_counted_ptrIPN6opencc8TextDictELN9__gnu_cxx12_Lock_policyE2EE@Base 1.1.1+git20200624+ds2
 (arch=armel riscv64)_ZTISt15_Sp_counted_ptrIPN6opencc9ConverterELN9__gnu_cxx12_Lock_policyE1EE@Base 1.1.1+git20200624+ds2
 (arch=!armel !riscv64)_ZTISt15_Sp_counted_ptrIPN6opencc9ConverterELN9__gnu_cxx12_Lock_policyE2EE@Base 1.1.1+git20200624+ds2
 (arch=armel riscv64)_ZTISt15_Sp_counted_ptrIPN6opencc9DartsDictELN9__gnu_cxx12_Lock_policyE1EE@Base 1.1.1+git20200624+ds2
 (arch=!armel !riscv64)_ZTISt15_Sp_counted_ptrIPN6opencc9DartsDictELN9__gnu_cxx12_Lock_policyE2EE@Base 1.1.1+git20200624+ds2
 (arch=armel riscv64)_ZTISt15_Sp_counted_ptrIPN6opencc9DictGroupELN9__gnu_cxx12_Lock_policyE1EE@Base 1.1.1+git20200624+ds2
 (arch=!armel !riscv64)_ZTISt15_Sp_counted_ptrIPN6opencc9DictGroupELN9__gnu_cxx12_Lock_policyE2EE@Base 1.1.1+git20200624+ds2
 (arch=armel riscv64)_ZTISt16_Sp_counted_baseILN9__gnu_cxx12_Lock_policyE1EE@Base 1.1.1+git20200624+ds2
 (arch=!armel !riscv64)_ZTISt16_Sp_counted_baseILN9__gnu_cxx12_Lock_policyE2EE@Base 1.1.1+git20200624+ds2
 _ZTSFbRKN6opencc13PhraseExtractERKNS_19UTF8StringSliceBaseIhEEE@Base 1.1.1+git20200624+ds2
 (optional=templist)_ZTSN5Darts15DoubleArrayImplIchijNS_6LengthIcEEEE@Base 1.1.3+ds1
 _ZTSN6opencc10BinaryDictE@Base 1.1.1+git20200624+ds2
 _ZTSN6opencc10MarisaDictE@Base 1.1.1+git20200624+ds2
 _ZTSN6opencc11InvalidUTF8E@Base 1.1.1+git20200624+ds2
 _ZTSN6opencc12FileNotFoundE@Base 1.1.1+git20200624+ds2
 _ZTSN6opencc12SegmentationE@Base 1.1.1+git20200624+ds2
 _ZTSN6opencc13InvalidFormatE@Base 1.1.1+git20200624+ds2
 _ZTSN6opencc13PhraseExtractE@Base 1.1.1+git20200624+ds2
 _ZTSN6opencc15FileNotWritableE@Base 1.1.1+git20200624+ds2
 _ZTSN6opencc15ShouldNotBeHereE@Base 1.1.1+git20200624+ds2
 _ZTSN6opencc16NoValueDictEntryE@Base 1.1.1+git20200624+ds2
 _ZTSN6opencc16SerializableDictE@Base 1.1.1+git20200624+ds2
 _ZTSN6opencc16SerializedValuesE@Base 1.1.1+git20200624+ds2
 _ZTSN6opencc19MultiValueDictEntryE@Base 1.1.1+git20200624+ds2
 _ZTSN6opencc20MaxMatchSegmentationE@Base 1.1.1+git20200624+ds2
 _ZTSN6opencc20SingleValueDictEntryE@Base 1.1.1+git20200624+ds2
 _ZTSN6opencc21InvalidTextDictionaryE@Base 1.1.1+git20200624+ds2
 _ZTSN6opencc22StrMultiValueDictEntryE@Base 1.1.1+git20200624+ds2
 _ZTSN6opencc23StrSingleValueDictEntryE@Base 1.1.1+git20200624+ds2
 _ZTSN6opencc4DictE@Base 1.1.1+git20200624+ds2
 _ZTSN6opencc6ConfigE@Base 1.1.1+git20200624+ds2
 _ZTSN6opencc8TextDictE@Base 1.1.1+git20200624+ds2
 _ZTSN6opencc9DartsDictE@Base 1.1.1+git20200624+ds2
 _ZTSN6opencc9DictEntryE@Base 1.1.1+git20200624+ds2
 _ZTSN6opencc9DictGroupE@Base 1.1.1+git20200624+ds2
 _ZTSN6opencc9ExceptionE@Base 1.1.1+git20200624+ds2
 (arch=armel riscv64)_ZTSN9__gnu_cxx7__mutexE@Base 1.1.1+git20200624+ds2
 _ZTSPFbRKN6opencc13PhraseExtractERKNS_19UTF8StringSliceBaseIhEEE@Base 1.1.1+git20200624+ds2
 (arch=armel riscv64)_ZTSSt11_Mutex_baseILN9__gnu_cxx12_Lock_policyE1EE@Base 1.1.1+git20200624+ds2
 (arch=!armel !riscv64)_ZTSSt11_Mutex_baseILN9__gnu_cxx12_Lock_policyE2EE@Base 1.1.1+git20200624+ds2
 (arch=armel riscv64)_ZTSSt15_Sp_counted_ptrIPN6opencc10BinaryDictELN9__gnu_cxx12_Lock_policyE1EE@Base 1.1.1+git20200624+ds2
 (arch=!armel !riscv64)_ZTSSt15_Sp_counted_ptrIPN6opencc10BinaryDictELN9__gnu_cxx12_Lock_policyE2EE@Base 1.1.1+git20200624+ds2
 (arch=armel riscv64)_ZTSSt15_Sp_counted_ptrIPN6opencc10ConversionELN9__gnu_cxx12_Lock_policyE1EE@Base 1.1.1+git20200624+ds2
 (arch=!armel !riscv64)_ZTSSt15_Sp_counted_ptrIPN6opencc10ConversionELN9__gnu_cxx12_Lock_policyE2EE@Base 1.1.1+git20200624+ds2
 (arch=armel riscv64)_ZTSSt15_Sp_counted_ptrIPN6opencc10MarisaDictELN9__gnu_cxx12_Lock_policyE1EE@Base 1.1.1+git20200624+ds2
 (arch=!armel !riscv64)_ZTSSt15_Sp_counted_ptrIPN6opencc10MarisaDictELN9__gnu_cxx12_Lock_policyE2EE@Base 1.1.1+git20200624+ds2
 (arch=armel riscv64)_ZTSSt15_Sp_counted_ptrIPN6opencc15ConversionChainELN9__gnu_cxx12_Lock_policyE1EE@Base 1.1.1+git20200624+ds2
 (arch=!armel !riscv64)_ZTSSt15_Sp_counted_ptrIPN6opencc15ConversionChainELN9__gnu_cxx12_Lock_policyE2EE@Base 1.1.1+git20200624+ds2
 (arch=armel riscv64)_ZTSSt15_Sp_counted_ptrIPN6opencc16SerializedValuesELN9__gnu_cxx12_Lock_policyE1EE@Base 1.1.1+git20200624+ds2
 (arch=!armel !riscv64)_ZTSSt15_Sp_counted_ptrIPN6opencc16SerializedValuesELN9__gnu_cxx12_Lock_policyE2EE@Base 1.1.1+git20200624+ds2
 (arch=armel riscv64)_ZTSSt15_Sp_counted_ptrIPN6opencc20MaxMatchSegmentationELN9__gnu_cxx12_Lock_policyE1EE@Base 1.1.1+git20200624+ds2
 (arch=!armel !riscv64)_ZTSSt15_Sp_counted_ptrIPN6opencc20MaxMatchSegmentationELN9__gnu_cxx12_Lock_policyE2EE@Base 1.1.1+git20200624+ds2
 (arch=armel riscv64)_ZTSSt15_Sp_counted_ptrIPN6opencc7LexiconELN9__gnu_cxx12_Lock_policyE1EE@Base 1.1.1+git20200624+ds2
 (arch=!armel !riscv64)_ZTSSt15_Sp_counted_ptrIPN6opencc7LexiconELN9__gnu_cxx12_Lock_policyE2EE@Base 1.1.1+git20200624+ds2
 (arch=armel riscv64)_ZTSSt15_Sp_counted_ptrIPN6opencc8SegmentsELN9__gnu_cxx12_Lock_policyE1EE@Base 1.1.1+git20200624+ds2
 (arch=!armel !riscv64)_ZTSSt15_Sp_counted_ptrIPN6opencc8SegmentsELN9__gnu_cxx12_Lock_policyE2EE@Base 1.1.1+git20200624+ds2
 (arch=armel riscv64)_ZTSSt15_Sp_counted_ptrIPN6opencc8TextDictELN9__gnu_cxx12_Lock_policyE1EE@Base 1.1.1+git20200624+ds2
 (arch=!armel !riscv64)_ZTSSt15_Sp_counted_ptrIPN6opencc8TextDictELN9__gnu_cxx12_Lock_policyE2EE@Base 1.1.1+git20200624+ds2
 (arch=armel riscv64)_ZTSSt15_Sp_counted_ptrIPN6opencc9ConverterELN9__gnu_cxx12_Lock_policyE1EE@Base 1.1.1+git20200624+ds2
 (arch=!armel !riscv64)_ZTSSt15_Sp_counted_ptrIPN6opencc9ConverterELN9__gnu_cxx12_Lock_policyE2EE@Base 1.1.1+git20200624+ds2
 (arch=armel riscv64)_ZTSSt15_Sp_counted_ptrIPN6opencc9DartsDictELN9__gnu_cxx12_Lock_policyE1EE@Base 1.1.1+git20200624+ds2
 (arch=!armel !riscv64)_ZTSSt15_Sp_counted_ptrIPN6opencc9DartsDictELN9__gnu_cxx12_Lock_policyE2EE@Base 1.1.1+git20200624+ds2
 (arch=armel riscv64)_ZTSSt15_Sp_counted_ptrIPN6opencc9DictGroupELN9__gnu_cxx12_Lock_policyE1EE@Base 1.1.1+git20200624+ds2
 (arch=!armel !riscv64)_ZTSSt15_Sp_counted_ptrIPN6opencc9DictGroupELN9__gnu_cxx12_Lock_policyE2EE@Base 1.1.1+git20200624+ds2
 (arch=armel riscv64)_ZTSSt16_Sp_counted_baseILN9__gnu_cxx12_Lock_policyE1EE@Base 1.1.1+git20200624+ds2
 (arch=!armel !riscv64)_ZTSSt16_Sp_counted_baseILN9__gnu_cxx12_Lock_policyE2EE@Base 1.1.1+git20200624+ds2
 _ZTVN5Darts15DoubleArrayImplIchijNS_6LengthIcEEEE@Base 1.1.3+ds1
 _ZTVN6opencc10BinaryDictE@Base 1.1.1+git20200624+ds2
 _ZTVN6opencc10MarisaDictE@Base 1.1.1+git20200624+ds2
 _ZTVN6opencc11InvalidUTF8E@Base 1.1.1+git20200624+ds2
 _ZTVN6opencc12FileNotFoundE@Base 1.1.1+git20200624+ds2
 _ZTVN6opencc13InvalidFormatE@Base 1.1.1+git20200624+ds2
 _ZTVN6opencc13PhraseExtractE@Base 1.1.1+git20200624+ds2
 _ZTVN6opencc15FileNotWritableE@Base 1.1.1+git20200624+ds2
 _ZTVN6opencc15ShouldNotBeHereE@Base 1.1.1+git20200624+ds2
 _ZTVN6opencc16NoValueDictEntryE@Base 1.1.1+git20200624+ds2
 _ZTVN6opencc16SerializedValuesE@Base 1.1.1+git20200624+ds2
 _ZTVN6opencc19MultiValueDictEntryE@Base 1.1.1+git20200624+ds2
 _ZTVN6opencc20MaxMatchSegmentationE@Base 1.1.1+git20200624+ds2
 _ZTVN6opencc21InvalidTextDictionaryE@Base 1.1.1+git20200624+ds2
 _ZTVN6opencc22StrMultiValueDictEntryE@Base 1.1.1+git20200624+ds2
 _ZTVN6opencc23StrSingleValueDictEntryE@Base 1.1.1+git20200624+ds2
 _ZTVN6opencc4DictE@Base 1.1.1+git20200624+ds2
 _ZTVN6opencc6ConfigE@Base 1.1.1+git20200624+ds2
 _ZTVN6opencc8TextDictE@Base 1.1.1+git20200624+ds2
 _ZTVN6opencc9DartsDictE@Base 1.1.1+git20200624+ds2
 _ZTVN6opencc9DictGroupE@Base 1.1.1+git20200624+ds2
 _ZTVN6opencc9ExceptionE@Base 1.1.1+git20200624+ds2
 (arch=armel riscv64)_ZTVSt15_Sp_counted_ptrIPN6opencc10BinaryDictELN9__gnu_cxx12_Lock_policyE1EE@Base 1.1.1+git20200624+ds2
 (arch=!armel !riscv64)_ZTVSt15_Sp_counted_ptrIPN6opencc10BinaryDictELN9__gnu_cxx12_Lock_policyE2EE@Base 1.1.1+git20200624+ds2
 (arch=armel riscv64)_ZTVSt15_Sp_counted_ptrIPN6opencc10ConversionELN9__gnu_cxx12_Lock_policyE1EE@Base 1.1.1+git20200624+ds2
 (arch=!armel !riscv64)_ZTVSt15_Sp_counted_ptrIPN6opencc10ConversionELN9__gnu_cxx12_Lock_policyE2EE@Base 1.1.1+git20200624+ds2
 (arch=armel riscv64)_ZTVSt15_Sp_counted_ptrIPN6opencc10MarisaDictELN9__gnu_cxx12_Lock_policyE1EE@Base 1.1.1+git20200624+ds2
 (arch=!armel !riscv64)_ZTVSt15_Sp_counted_ptrIPN6opencc10MarisaDictELN9__gnu_cxx12_Lock_policyE2EE@Base 1.1.1+git20200624+ds2
 (arch=armel riscv64)_ZTVSt15_Sp_counted_ptrIPN6opencc15ConversionChainELN9__gnu_cxx12_Lock_policyE1EE@Base 1.1.1+git20200624+ds2
 (arch=!armel !riscv64)_ZTVSt15_Sp_counted_ptrIPN6opencc15ConversionChainELN9__gnu_cxx12_Lock_policyE2EE@Base 1.1.1+git20200624+ds2
 (arch=armel riscv64)_ZTVSt15_Sp_counted_ptrIPN6opencc16SerializedValuesELN9__gnu_cxx12_Lock_policyE1EE@Base 1.1.1+git20200624+ds2
 (arch=!armel !riscv64)_ZTVSt15_Sp_counted_ptrIPN6opencc16SerializedValuesELN9__gnu_cxx12_Lock_policyE2EE@Base 1.1.1+git20200624+ds2
 (arch=armel riscv64)_ZTVSt15_Sp_counted_ptrIPN6opencc20MaxMatchSegmentationELN9__gnu_cxx12_Lock_policyE1EE@Base 1.1.1+git20200624+ds2
 (arch=!armel !riscv64)_ZTVSt15_Sp_counted_ptrIPN6opencc20MaxMatchSegmentationELN9__gnu_cxx12_Lock_policyE2EE@Base 1.1.1+git20200624+ds2
 (arch=armel riscv64)_ZTVSt15_Sp_counted_ptrIPN6opencc7LexiconELN9__gnu_cxx12_Lock_policyE1EE@Base 1.1.1+git20200624+ds2
 (arch=!armel !riscv64)_ZTVSt15_Sp_counted_ptrIPN6opencc7LexiconELN9__gnu_cxx12_Lock_policyE2EE@Base 1.1.1+git20200624+ds2
 (arch=armel riscv64)_ZTVSt15_Sp_counted_ptrIPN6opencc8SegmentsELN9__gnu_cxx12_Lock_policyE1EE@Base 1.1.1+git20200624+ds2
 (arch=!armel !riscv64)_ZTVSt15_Sp_counted_ptrIPN6opencc8SegmentsELN9__gnu_cxx12_Lock_policyE2EE@Base 1.1.1+git20200624+ds2
 (arch=armel riscv64)_ZTVSt15_Sp_counted_ptrIPN6opencc8TextDictELN9__gnu_cxx12_Lock_policyE1EE@Base 1.1.1+git20200624+ds2
 (arch=!armel !riscv64)_ZTVSt15_Sp_counted_ptrIPN6opencc8TextDictELN9__gnu_cxx12_Lock_policyE2EE@Base 1.1.1+git20200624+ds2
 (arch=armel riscv64)_ZTVSt15_Sp_counted_ptrIPN6opencc9ConverterELN9__gnu_cxx12_Lock_policyE1EE@Base 1.1.1+git20200624+ds2
 (arch=!armel !riscv64)_ZTVSt15_Sp_counted_ptrIPN6opencc9ConverterELN9__gnu_cxx12_Lock_policyE2EE@Base 1.1.1+git20200624+ds2
 (arch=armel riscv64)_ZTVSt15_Sp_counted_ptrIPN6opencc9DartsDictELN9__gnu_cxx12_Lock_policyE1EE@Base 1.1.1+git20200624+ds2
 (arch=!armel !riscv64)_ZTVSt15_Sp_counted_ptrIPN6opencc9DartsDictELN9__gnu_cxx12_Lock_policyE2EE@Base 1.1.1+git20200624+ds2
 (arch=armel riscv64)_ZTVSt15_Sp_counted_ptrIPN6opencc9DictGroupELN9__gnu_cxx12_Lock_policyE1EE@Base 1.1.1+git20200624+ds2
 (arch=!armel !riscv64)_ZTVSt15_Sp_counted_ptrIPN6opencc9DictGroupELN9__gnu_cxx12_Lock_policyE2EE@Base 1.1.1+git20200624+ds2
 _ZZN9rapidjson12GenericValueINS_4UTF8IcEENS_19MemoryPoolAllocatorINS_12CrtAllocatorEEEEixIS5_EERS6_RKNS0_IS2_T_EEE6buffer@Base 1.1.1+git20200624+ds2
 _ZZN9rapidjson13GenericReaderINS_4UTF8IcEES2_NS_12CrtAllocatorEE19ParseStringToStreamILj1ES2_S2_NS_25GenericInsituStringStreamIS2_EES7_EEvRT2_RT3_E6escape@Base 1.1.1+git20200624+ds2
 _ZZN9rapidjson8internal5Pow10EiE1e@Base 1.1.1+git20200624+ds2
 (c++)"non-virtual thunk to opencc::DartsDict::SerializeToFile(_IO_FILE*) const@Base" 1.1.1+git20200624+ds2
 (c++)"non-virtual thunk to opencc::MarisaDict::SerializeToFile(_IO_FILE*) const@Base" 1.1.1+git20200624+ds2
 (c++)"non-virtual thunk to opencc::TextDict::SerializeToFile(_IO_FILE*) const@Base" 1.1.1+git20200624+ds2
 opencc_close@Base 1.1.1+git20200624+ds2
 opencc_convert_utf8@Base 1.1.1+git20200624+ds2
 opencc_convert_utf8_free@Base 1.1.1+git20200624+ds2
 opencc_convert_utf8_to_buffer@Base 1.1.1+git20200624+ds2
 opencc_error@Base 1.1.1+git20200624+ds2
 opencc_open@Base 1.1.1+git20200624+ds2
